(lp1
(dp2
S'Greencastle'
p3
(S'39.6335556'
S'-86.8138056'
tp4
sa(dp5
S'Dowagiac'
p6
(S'41.9929342'
S'-86.1280125'
tp7
sa(dp8
S'Cambridge'
p9
(S'39.9750278'
S'-81.5775833'
tp10
sa(dp11
S'Sturgeon Bay'
p12
(S'44.8436667'
S'-87.4215556'
tp13
sa(dp14
S'Stewartstown'
p15
(S'39.7948244'
S'-76.6471914'
tp16
sa(dp17
S'Pendleton'
p18
(S'45.695'
S'-118.841389'
tp19
sa(dp20
S'Tyonek'
p21
(S'61.076667'
S'-151.138056'
tp22
sa(dp23
S'Riverton WY'
p24
(S'43.064167'
S'-108.459722'
tp25
sa(dp26
S'Montrose CO'
p27
(S'38.509794'
S'-107.894242'
tp28
sa(dp29
S'Bolingbrook'
p30
(S'41.6959744'
S'-88.1292306'
tp31
sa(dp32
S'Kenosha'
p33
(S'42.5956944'
S'-87.9278056'
tp34
sa(dp35
S'Las Vegas'
p36
(S'36.2106944'
S'-115.1944444'
tp37
sa(dp38
S'Georgetown'
p39
(S'38.8819456'
S'-83.8827367'
tp40
sa(dp41
S'Lake Geneva'
p42
(S'42.6149167'
S'-88.3895833'
tp43
sa(dp44
S'De Kalb'
p45
(S'41.9338342'
S'-88.7056864'
tp46
sa(dp47
S'Lafayette'
p48
(S'40.4123056'
S'-86.9368889'
tp49
sa(dp50
S'Oxford'
p51
(S'39.5022607'
S'-84.7843814'
tp52
sa(dp53
S'Muncie'
p54
(S'40.2424722'
S'-85.39575'
tp55
sa(dp56
S'Point Roberts'
p57
(S'48.9797222'
S'-123.0788889'
tp58
sa(dp59
S'Macomb'
p60
(S'40.5200833'
S'-90.6523889'
tp61
sa(dp62
S'Wausau'
p63
(S'44.9262845'
S'-89.6270018'
tp64
sa(dp65
S'Portage'
p66
(S'43.5603136'
S'-89.4828607'
tp67
sa(dp68
S'Ironwood'
p69
(S'46.5274747'
S'-90.1313967'
tp70
sa(dp71
S'Mackinac Island'
p72
(S'45.8649344'
S'-84.637344'
tp73
sa(dp74
S'Grand Marais'
p75
(S'47.8383333'
S'-90.3829444'
tp76
sa(dp77
S'Valparaiso'
p78
(S'41.4539722'
S'-87.0070833'
tp79
sa(dp80
S'Silverton'
p81
(S'37.812545'
S'-107.662994'
tp82
sa(dp83
S'McCarthy'
p84
(S'61.4370608'
S'-142.90307372'
tp85
sa(dp86
S'Seward'
p87
(S'60.1269383'
S'-149.4188122'
tp88
sa(dp89
S'Michigan City'
p90
(S'41.7033'
S'-86.8211'
tp91
sa(dp92
S'East Glacier'
p93
(S'48.443965'
S'-113.218556'
tp94
sa(dp95
S'Allakaket'
p96
(S'66.5519'
S'-152.6222'
tp97
sa(dp98
S'Yakutat'
p99
(S'59.3012'
S'-139.3937'
tp100
sa(dp101
S'Marquette'
p102
(S'46.353611'
S'-87.395278'
tp103
sa(dp104
S'Iron Mountain'
p105
(S'45.8183611'
S'-88.1145556'
tp106
sa(dp107
S'Escanaba'
p108
(S'45.722778'
S'-87.093611'
tp109
sa(dp110
S'Marion'
p111
(S'37.7549569'
S'-89.0110936'
tp112
sa(dp113
S'Barter Island'
p114
(S'70.133989'
S'-143.581867'
tp115
sa(dp116
S'Fort Wainwright'
p117
(S'70.613378'
S'-159.86035'
tp118
sa(dp119
S'Cape Lisburne'
p120
(S'68.875133'
S'-166.110022'
tp121
sa(dp122
S'Point Lay'
p123
(S'69.732875'
S'-163.005342'
tp124
sa(dp125
S'Hilo'
p126
(S'19.721375'
S'-155.048469'
tp127
sa(dp128
S'Orlando'
p129
(S'28.545464'
S'-81.332936'
tp130
sa(dp131
S'Bettles'
p132
(S'66.913944'
S'-151.529056'
tp133
sa(dp134
S'Clear Mews'
p135
(S'64.301203'
S'-149.120144'
tp136
sa(dp137
S'Indian Mountains'
p138
(S'65.992794'
S'-153.704289'
tp139
sa(dp140
S'Fort Yukon'
p141
(S'66.571492'
S'-145.250417'
tp142
sa(dp143
S'Sparrevohn'
p144
(S'61.097369'
S'-155.574228'
tp145
sa(dp146
S'Fort Richardson'
p147
(S'61.266381'
S'-149.653119'
tp148
sa(dp149
S'Tatalina'
p150
(S'62.894369'
S'-155.976525'
tp151
sa(dp152
S'Cape Romanzof'
p153
(S'61.780297'
S'-166.038747'
tp154
sa(dp155
S'Bedford'
p156
(S'42.469953'
S'-71.289031'
tp157
sa(dp158
S'St. Paul Island'
p159
(S'57.167333'
S'-170.220444'
tp160
sa(dp161
S'Cape Newenham'
p162
(S'58.646428'
S'-162.062778'
tp163
sa(dp164
S'Point Barrow'
p165
(S'56.578344'
S'-169.661611'
tp166
sa(dp167
S'Iliamna'
p168
(S'59.754356'
S'-154.910961'
tp169
sa(dp170
S'Port Moller'
p171
(S'59.011356'
S'-161.819664'
tp172
sa(dp173
S'Big Mountain'
p174
(S'59.361247'
S'-155.258822'
tp175
sa(dp176
S'Oscoda'
p177
(S'44.451558'
S'-83.394053'
tp178
sa(dp179
S'Fort Ord'
p180
(S'36.681878'
S'-121.762347'
tp181
sa(dp182
S'Sacramento'
p183
(S'38.553897'
S'-121.297592'
tp184
sa(dp185
S'Fort Irwin'
p186
(S'35.280531'
S'-116.630031'
tp187
sa(dp188
S'Twenty Nine Palms'
p189
(S'34.296161'
S'-116.162203'
tp190
sa(dp191
S'Fort Smith'
p192
(S'35.336583'
S'-94.367444'
tp193
sa(dp194
S'Anchorage'
p195
(S'61.213544'
S'-149.844447'
tp196
sa(dp197
S'Grants'
p198
(S'35.167286'
S'-107.901989'
tp199
sa(dp200
S'Ponca City'
p201
(S'36.731958'
S'-97.099781'
tp202
sa(dp203
S'Hunter Aaf'
p204
(S'32.01'
S'-81.145683'
tp205
sa(dp206
S'Grand Forks'
p207
(S'47.949256'
S'-97.176111'
tp208
sa(dp209
S'Pine Bluff'
p210
(S'34.173142'
S'-91.935597'
tp211
sa(dp212
S'Milton'
p213
(S'30.724167'
S'-87.021944'
tp214
sa(dp215
S'Hana'
p216
(S'20.795636'
S'-156.014439'
tp217
sa(dp218
S'Prescott'
p219
(S'34.654472'
S'-112.419583'
tp220
sa(dp221
S'Trenton'
p222
(S'40.276692'
S'-74.813469'
tp223
sa(dp224
S'Boston'
p225
(S'42.364347'
S'-71.005181'
tp226
sa(dp227
S'Fairfield'
p228
(S'38.262692'
S'-121.927464'
tp229
sa(dp230
S'Rome'
p231
(S'43.2338'
S'-75.407033'
tp232
sa(dp233
S'Wendover'
p234
(S'40.718694'
S'-114.030889'
tp235
sa(dp236
S'Mobile'
p237
(S'30.626783'
S'-88.068092'
tp238
sa(dp239
S'Oakland'
p240
(S'37.721278'
S'-122.220722'
tp241
sa(dp242
S'Omaha'
p243
(S'41.303167'
S'-95.894069'
tp244
sa(dp245
S'Port Angeles'
p246
(S'48.141481'
S'-123.414075'
tp247
sa(dp248
S'Kahului'
p249
(S'20.89865'
S'-156.430458'
tp250
sa(dp251
S'Wichita'
p252
(S'37.649944'
S'-97.433056'
tp253
sa(dp254
S'Kansas City'
p255
(S'39.297606'
S'-94.713905'
tp256
sa(dp257
S'Madison'
p258
(S'43.139858'
S'-89.337514'
tp259
sa(dp260
S'Dillingham'
p261
(S'59.044667'
S'-158.5055'
tp262
sa(dp263
S'Harrison'
p264
(S'36.261519'
S'-93.154728'
tp265
sa(dp266
S'Phoenix'
p267
(S'33.434278'
S'-112.011583'
tp268
sa(dp269
S'Bangor'
p270
(S'44.807444'
S'-68.828139'
tp271
sa(dp272
S'Fort Lauderdale'
p273
(S'26.197281'
S'-80.170706'
tp274
sa(dp275
S'Longview'
p276
(S'32.384014'
S'-94.711486'
tp277
sa(dp278
S'Andersen'
p279
(S'34.494583'
S'-82.709389'
tp280
sa(dp281
S'Spokane'
p282
(S'47.619861'
S'-117.533833'
tp283
sa(dp284
S'Hollywood'
p285
(S'26.001222'
S'-80.240722'
tp286
sa(dp287
S'San Francisco'
p288
(S'37.618972'
S'-122.374889'
tp289
sa(dp290
S'Cutbank'
p291
(S'48.608353'
S'-112.376144'
tp292
sa(dp293
S'Louisiana'
p294
(S'30.037758'
S'-91.883896'
tp295
sa(dp296
S'Gainesville'
p297
(S'29.690056'
S'-82.271778'
tp298
sa(dp299
S'Memphis'
p300
(S'35.042417'
S'-89.976667'
tp301
sa(dp302
S'Douglas'
p303
(S'31.469028'
S'-109.603667'
tp304
sa(dp305
S'Delta Junction'
p306
(S'63.994547'
S'-145.721642'
tp307
sa(dp308
S'Waco'
p309
(S'31.637831'
S'-97.074139'
tp310
sa(dp311
S'Annette Island'
p312
(S'55.042436'
S'-131.572233'
tp313
sa(dp314
S'Caribou'
p315
(S'46.8715'
S'-68.017917'
tp316
sa(dp317
S'Jacksonville'
p318
(S'34.916944'
S'-92.149722'
tp319
sa(dp320
S'Redstone'
p321
(S'34.678653'
S'-86.684781'
tp322
sa(dp323
S'Fort Bragg'
p324
(S'35.170883'
S'-79.014472'
tp325
sa(dp326
S'Dalhart'
p327
(S'36.022586'
S'-102.547278'
tp328
sa(dp329
S'Del Rio'
p330
(S'29.359486'
S'-100.777975'
tp331
sa(dp332
S'Los Angeles'
p333
(S'33.942536'
S'-118.408075'
tp334
sa(dp335
S'Anniston'
p336
(S'33.588167'
S'-85.858111'
tp337
sa(dp338
S'Cleveland'
p339
(S'41.411689'
S'-81.849794'
tp340
sa(dp341
S'Dover'
p342
(S'39.129539'
S'-75.465958'
tp343
sa(dp344
S'Cincinnati'
p345
(S'39.048836'
S'-84.667822'
tp346
sa(dp347
S'Fort Meade'
p348
(S'39.085386'
S'-76.759414'
tp349
sa(dp350
S'China'
p351
(S'35.685422'
S'-117.692039'
tp352
sa(dp353
S'Huron'
p354
(S'44.3852'
S'-98.228542'
tp355
sa(dp356
S'Juneau'
p357
(S'58.354972'
S'-134.576278'
tp358
sa(dp359
S'Lafayette'
p360
(S'30.205278'
S'-91.987611'
tp361
sa(dp362
S'Newark'
p363
(S'40.6925'
S'-74.168667'
tp364
sa(dp365
S'Boise'
p366
(S'43.564361'
S'-116.222861'
tp367
sa(dp368
S'Indian Springs'
p369
(S'36.587183'
S'-115.673353'
tp370
sa(dp371
S'Garden City'
p372
(S'37.927528'
S'-100.724417'
tp373
sa(dp374
S'Minot'
p375
(S'48.259378'
S'-101.280333'
tp376
sa(dp377
S'Wahiawa'
p378
(S'21.4835'
S'-158.039667'
tp379
sa(dp380
S'Montgomery'
p381
(S'32.382944'
S'-86.365778'
tp382
sa(dp383
S'Robinson'
p384
(S'34.850089'
S'-92.300153'
tp385
sa(dp386
S'Dallas'
p387
(S'32.847111'
S'-96.851778'
tp388
sa(dp389
S'Fort Carson'
p390
(S'38.678394'
S'-104.756581'
tp391
sa(dp392
S'Helena'
p393
(S'46.606806'
S'-111.98275'
tp394
sa(dp395
S'Miramar'
p396
(S'32.867694'
S'-117.14175'
tp397
sa(dp398
S'Phoenix'
p399
(S'33.535'
S'-112.38306'
tp400
sa(dp401
S'Mary Esther'
p402
(S'30.427803'
S'-86.689278'
tp403
sa(dp404
S'Hawthorne'
p405
(S'33.922839'
S'-118.335186'
tp406
sa(dp407
S'Houlton'
p408
(S'46.123083'
S'-67.792056'
tp409
sa(dp410
S'Enid'
p411
(S'36.339167'
S'-97.9165'
tp412
sa(dp413
S'Point Mugu'
p414
(S'34.120285'
S'-119.12094'
tp415
sa(dp416
S'Edwards Afb'
p417
(S'34.905417'
S'-117.883739'
tp418
sa(dp419
S'Lake Charles'
p420
(S'30.126112'
S'-93.223335'
tp421
sa(dp422
S'Kona'
p423
(S'19.738767'
S'-156.045631'
tp424
sa(dp425
S'Myrtle Beach'
p426
(S'33.67975'
S'-78.928333'
tp427
sa(dp428
S'Lemoore'
p429
(S'36.333012'
S'-119.95208'
tp430
sa(dp431
S'Nantucket'
p432
(S'41.253053'
S'-70.060181'
tp433
sa(dp434
S'Fort Eustis'
p435
(S'37.1325'
S'-76.608841'
tp436
sa(dp437
S'Hopkinsville'
p438
(S'36.668567'
S'-87.496183'
tp439
sa(dp440
S'Washington'
p441
(S'38.852083'
S'-77.037722'
tp442
sa(dp443
S'Patuxent River'
p444
(S'38.285981'
S'-76.411781'
tp445
sa(dp446
S'Palacios'
p447
(S'28.727508'
S'-96.250958'
tp448
sa(dp449
S'Blytheville'
p450
(S'35.964347'
S'-89.943956'
tp451
sa(dp452
S'Atlantic City'
p453
(S'39.457583'
S'-74.577167'
tp454
sa(dp455
S'Oklahoma City'
p456
(S'35.414739'
S'-97.386633'
tp457
sa(dp458
S'Elizabeth City'
p459
(S'36.260581'
S'-76.174572'
tp460
sa(dp461
S'Pueblo'
p462
(S'38.289085'
S'-104.496572'
tp463
sa(dp464
S'Presque Isle'
p465
(S'46.688958'
S'-68.044797'
tp466
sa(dp467
S'Kirtland A.f.b.'
p468
(S'35.040222'
S'-106.609194'
tp469
sa(dp470
S'Fort Lewis'
p471
(S'47.079217'
S'-122.580783'
tp472
sa(dp473
S'Kodiak'
p474
(S'57.749967'
S'-152.493856'
tp475
sa(dp476
S'Opolu'
p477
(S'20.265256'
S'-155.859989'
tp478
sa(dp479
S'Fort Lauderdale'
p480
(S'26.072583'
S'-80.15275'
tp481
sa(dp482
S'Muskogee'
p483
(S'35.656489'
S'-95.366656'
tp484
sa(dp485
S'International Falls'
p486
(S'48.566186'
S'-93.403067'
tp487
sa(dp488
S'Salt Lake City'
p489
(S'40.788389'
S'-111.977772'
tp490
sa(dp491
S'Childress'
p492
(S'34.433781'
S'-100.287992'
tp493
sa(dp494
S'Biloxi'
p495
(S'30.410425'
S'-88.924433'
tp496
sa(dp497
S'Fort Benning'
p498
(S'32.337322'
S'-84.991283'
tp499
sa(dp500
S'Kingsville'
p501
(S'27.507223'
S'-97.809723'
tp502
sa(dp503
S'Fort Riley'
p504
(S'39.055275'
S'-96.764453'
tp505
sa(dp506
S'Harrisburg'
p507
(S'40.193494'
S'-76.763403'
tp508
sa(dp509
S'Lincoln'
p510
(S'40.850971'
S'-96.75925'
tp511
sa(dp512
S'Lansing'
p513
(S'42.7787'
S'-84.587357'
tp514
sa(dp515
S'Kamuela'
p516
(S'20.001328'
S'-155.668108'
tp517
sa(dp518
S'Massena'
p519
(S'44.935833'
S'-74.845547'
tp520
sa(dp521
S'Hickory'
p522
(S'35.741147'
S'-81.38955'
tp523
sa(dp524
S'St. Petersburg'
p525
(S'27.765111'
S'-82.626972'
tp526
sa(dp527
S'Fort Myers'
p528
(S'26.586611'
S'-81.86325'
tp529
sa(dp530
S'Houston'
p531
(S'29.984433'
S'-95.341442'
tp532
sa(dp533
S'Millinocket'
p534
(S'45.647836'
S'-68.685561'
tp535
sa(dp536
S'Camp Springs'
p537
(S'38.810806'
S'-76.867028'
tp538
sa(dp539
S'Winston-salem'
p540
(S'36.133722'
S'-80.222'
tp541
sa(dp542
S'Victorville'
p543
(S'34.597453'
S'-117.382997'
tp544
sa(dp545
S'Crestview'
p546
(S'30.778833'
S'-86.522111'
tp547
sa(dp548
S'Fort Drum'
p549
(S'44.055619'
S'-75.719458'
tp550
sa(dp551
S'Port Huron'
p552
(S'42.910957'
S'-82.528862'
tp553
sa(dp554
S'Bakersfield'
p555
(S'35.433598'
S'-119.05677'
tp556
sa(dp557
S'El Paso'
p558
(S'31.80725'
S'-106.377583'
tp559
sa(dp560
S'Harlingen'
p561
(S'26.2285'
S'-97.654389'
tp562
sa(dp563
S'Columbia'
p564
(S'33.938833'
S'-81.119528'
tp565
sa(dp566
S'Tucson'
p567
(S'32.166467'
S'-110.883144'
tp568
sa(dp569
S'Pensacola'
p570
(S'30.352656'
S'-87.318647'
tp571
sa(dp572
S'Pensacola'
p573
(S'30.473425'
S'-87.186611'
tp574
sa(dp575
S'Red River'
p576
(S'47.961098'
S'-97.401194'
tp577
sa(dp578
S'Houston'
p579
(S'29.645419'
S'-95.278889'
tp580
sa(dp581
S'Buckley'
p582
(S'39.701668'
S'-104.75166'
tp583
sa(dp584
S'Northway'
p585
(S'62.961334'
S'-141.929136'
tp586
sa(dp587
S'Palmer'
p588
(S'61.594914'
S'-149.088711'
tp589
sa(dp590
S'Pittsburgh'
p591
(S'40.491467'
S'-80.232872'
tp592
sa(dp593
S'Barrow'
p594
(S'71.285446'
S'-156.766003'
tp595
sa(dp596
S'Houston'
p597
(S'29.607333'
S'-95.15875'
tp598
sa(dp599
S'Whidbey Island'
p600
(S'48.351803'
S'-122.655906'
tp601
sa(dp602
S'Alice'
p603
(S'27.740889'
S'-98.026944'
tp604
sa(dp605
S'Valdosta'
p606
(S'30.967833'
S'-83.193'
tp607
sa(dp608
S'Miami'
p609
(S'25.79325'
S'-80.290556'
tp610
sa(dp611
S'Seattle'
p612
(S'47.449'
S'-122.309306'
tp613
sa(dp614
S'Chattanooga'
p615
(S'35.035278'
S'-85.203808'
tp616
sa(dp617
S'Stratford'
p618
(S'41.163472'
S'-73.126167'
tp619
sa(dp620
S'Jackson'
p621
(S'32.311167'
S'-90.075889'
tp622
sa(dp623
S'Galveston'
p624
(S'29.265322'
S'-94.860406'
tp625
sa(dp626
S'Long Beach'
p627
(S'33.817722'
S'-118.151611'
tp628
sa(dp629
S'Dillingham'
p630
(S'21.579475'
S'-158.197281'
tp631
sa(dp632
S'Williamsport'
p633
(S'41.241836'
S'-76.921094'
tp634
sa(dp635
S'Indianapolis'
p636
(S'39.717331'
S'-86.294383'
tp637
sa(dp638
S'Knobnoster'
p639
(S'38.730306'
S'-93.547864'
tp640
sa(dp641
S'Akron'
p642
(S'41.0375'
S'-81.466917'
tp643
sa(dp644
S'Greenwood'
p645
(S'33.494328'
S'-90.084706'
tp646
sa(dp647
S'White Plains'
p648
(S'41.066959'
S'-73.707575'
tp649
sa(dp650
S'West Hampton Beach'
p651
(S'40.843656'
S'-72.631789'
tp652
sa(dp653
S'Jonesboro'
p654
(S'35.831708'
S'-90.646417'
tp655
sa(dp656
S'Tonopah'
p657
(S'37.798836'
S'-116.78075'
tp658
sa(dp659
S'West Palm Beach'
p660
(S'26.593'
S'-80.085056'
tp661
sa(dp662
S'San Diego'
p663
(S'32.699219'
S'-117.21531'
tp664
sa(dp665
S'El Paso'
p666
(S'31.849528'
S'-106.380039'
tp667
sa(dp668
S'Yuma'
p669
(S'32.656578'
S'-114.60598'
tp670
sa(dp671
S'Carlsbad'
p672
(S'32.337472'
S'-104.263278'
tp673
sa(dp674
S'Duluth'
p675
(S'46.842091'
S'-92.193649'
tp676
sa(dp677
S'Bethel'
p678
(S'60.779778'
S'-161.838'
tp679
sa(dp680
S'Louisville'
p681
(S'38.228'
S'-85.663722'
tp682
sa(dp683
S'Fort Huachuca'
p684
(S'31.588472'
S'-110.344389'
tp685
sa(dp686
S'Lihue'
p687
(S'21.975983'
S'-159.338958'
tp688
sa(dp689
S'Terre Haute'
p690
(S'39.451464'
S'-87.307561'
tp691
sa(dp692
S'Havre'
p693
(S'48.542983'
S'-109.762342'
tp694
sa(dp695
S'Grant County Airport'
p696
(S'47.207708'
S'-119.32019'
tp697
sa(dp698
S'Montpelier'
p699
(S'44.203503'
S'-72.562328'
tp700
sa(dp701
S'San Nicolas Island'
p702
(S'33.239765'
S'-119.45816'
tp703
sa(dp704
S'Richmond'
p705
(S'37.505167'
S'-77.319667'
tp706
sa(dp707
S'Shreveport'
p708
(S'32.446629'
S'-93.8256'
tp709
sa(dp710
S'Cordova'
p711
(S'60.491778'
S'-145.477556'
tp712
sa(dp713
S'Norfolk'
p714
(S'36.894611'
S'-76.201222'
tp715
sa(dp716
S'Beaumont'
p717
(S'29.950833'
S'-94.020694'
tp718
sa(dp719
S'Savannah'
p720
(S'32.127583'
S'-81.202139'
tp721
sa(dp722
S'Ogden'
p723
(S'41.123939'
S'-111.973039'
tp724
sa(dp725
S'Nome'
p726
(S'64.512203'
S'-165.445247'
tp727
sa(dp728
S'San Luis'
p729
(S'45.771028'
S'-122.861833'
tp730
sa(dp731
S'St. Petersburg'
p732
(S'27.910167'
S'-82.687389'
tp733
sa(dp734
S'Macon'
p735
(S'45.12665'
S'-87.638443'
tp736
sa(dp737
S'Conroe'
p738
(S'30.351833'
S'-95.414467'
tp739
sa(dp740
S'Deadhorse'
p741
(S'70.19475'
S'-148.465167'
tp742
sa(dp743
S'San Antonio'
p744
(S'29.533694'
S'-98.469778'
tp745
sa(dp746
S'Rochester'
p747
(S'43.118866'
S'-77.672389'
tp748
sa(dp749
S'Coco Beach'
p750
(S'28.234922'
S'-80.610125'
tp751
sa(dp752
S'Teterboro'
p753
(S'40.850103'
S'-74.060837'
tp754
sa(dp755
S'Rapid City'
p756
(S'44.145042'
S'-103.103567'
tp757
sa(dp758
S'Raleigh-durham'
p759
(S'35.877639'
S'-78.787472'
tp760
sa(dp761
S'Dayton'
p762
(S'39.902375'
S'-84.219375'
tp763
sa(dp764
S'Kenai'
p765
(S'60.573111'
S'-151.245'
tp766
sa(dp767
S'Mcalester'
p768
(S'34.882403'
S'-95.783463'
tp769
sa(dp770
S'Niagara Falls'
p771
(S'43.107333'
S'-78.946194'
tp772
sa(dp773
S'Bryan'
p774
(S'30.715694'
S'-96.331361'
tp775
sa(dp776
S'Wright'
p777
(S'31.889097'
S'-81.562333'
tp778
sa(dp779
S'Newport News'
p780
(S'37.131894'
S'-76.492989'
tp781
sa(dp782
S'Alexandria'
p783
(S'31.394903'
S'-92.295772'
tp784
sa(dp785
S'Altus'
p786
(S'34.667067'
S'-99.266681'
tp787
sa(dp788
S'Tucson'
p789
(S'32.116083'
S'-110.941028'
tp790
sa(dp791
S'Minot'
p792
(S'48.415572'
S'-101.357661'
tp793
sa(dp794
S'Marysville'
p795
(S'39.136089'
S'-121.436567'
tp796
sa(dp797
S'Kankakee'
p798
(S'41.071389'
S'-87.846278'
tp799
sa(dp800
S'Goldsboro'
p801
(S'35.339383'
S'-77.960589'
tp802
sa(dp803
S'Providence'
p804
(S'41.732581'
S'-71.420383'
tp805
sa(dp806
S'Salisbury'
p807
(S'38.340525'
S'-75.510289'
tp808
sa(dp809
S'Rancho Murieta'
p810
(S'38.486778'
S'-121.102778'
tp811
sa(dp812
S'Burbank'
p813
(S'34.200667'
S'-118.358667'
tp814
sa(dp815
S'Detroit'
p816
(S'42.212444'
S'-83.353389'
tp817
sa(dp818
S'Tampa'
p819
(S'27.975472'
S'-82.53325'
tp820
sa(dp821
S'Pembina'
p822
(S'48.942501'
S'-97.240833'
tp823
sa(dp824
S'Fort Polk'
p825
(S'31.044833'
S'-93.191667'
tp826
sa(dp827
S'Fairbanks'
p828
(S'64.665667'
S'-147.1015'
tp829
sa(dp830
S'Hibbing'
p831
(S'47.3866'
S'-92.838994'
tp832
sa(dp833
S'Lufkin'
p834
(S'31.234014'
S'-94.75'
tp835
sa(dp836
S'Midland'
p837
(S'31.942528'
S'-102.201914'
tp838
sa(dp839
S'Green Bay'
p840
(S'44.485072'
S'-88.129589'
tp841
sa(dp842
S'Ardmore'
p843
(S'34.300833'
S'-97.008889'
tp844
sa(dp845
S'Wrightstown'
p846
(S'40.015556'
S'-74.591667'
tp847
sa(dp848
S'Cherry Point'
p849
(S'34.900872'
S'-76.880733'
tp850
sa(dp851
S'Santa Barbara'
p852
(S'32.609139'
S'-82.369944'
tp853
sa(dp854
S'Bush Field'
p855
(S'33.369944'
S'-81.9645'
tp856
sa(dp857
S'Williston'
p858
(S'48.177939'
S'-103.642347'
tp859
sa(dp860
S'Little Rock'
p861
(S'34.729444'
S'-92.224306'
tp862
sa(dp863
S'Newburgh'
p864
(S'41.504094'
S'-74.104839'
tp865
sa(dp866
S'Baudette'
p867
(S'48.728444'
S'-94.612222'
tp868
sa(dp869
S'Sacramento'
p870
(S'38.512524'
S'-121.49347'
tp871
sa(dp872
S'Homer'
p873
(S'59.645556'
S'-151.476583'
tp874
sa(dp875
S'Fort Leonardwood'
p876
(S'37.741631'
S'-92.140736'
tp877
sa(dp878
S'Marietta'
p879
(S'33.915382'
S'-84.516319'
tp880
sa(dp881
S'Spokane'
p882
(S'47.615058'
S'-117.655772'
tp883
sa(dp884
S'Houghton Lake'
p885
(S'44.359806'
S'-84.671112'
tp886
sa(dp887
S'Panama City'
p888
(S'30.069567'
S'-85.575417'
tp889
sa(dp890
S'Dallas-Fort Worth'
p891
(S'32.896828'
S'-97.037997'
tp892
sa(dp893
S'Melbourne'
p894
(S'28.102753'
S'-80.645258'
tp895
sa(dp896
S'Tacoma'
p897
(S'47.137678'
S'-122.476475'
tp898
sa(dp899
S'Austin'
p900
(S'30.194528'
S'-97.669889'
tp901
sa(dp902
S'Columbus'
p903
(S'39.813786'
S'-82.927822'
tp904
sa(dp905
S'Gwinn'
p906
(S'46.353625'
S'-87.395353'
tp907
sa(dp908
S'Knoxville'
p909
(S'35.810972'
S'-83.994028'
tp910
sa(dp911
S'Fort Hood'
p912
(S'31.138731'
S'-97.714469'
tp913
sa(dp914
S'St. Louis'
p915
(S'38.748697'
S'-90.370028'
tp916
sa(dp917
S'Millville'
p918
(S'39.367806'
S'-75.072222'
tp919
sa(dp920
S'Wichita Falls'
p921
(S'33.988797'
S'-98.491894'
tp922
sa(dp923
S'Cincinnati'
p924
(S'39.103333'
S'-84.418611'
tp925
sa(dp926
S'Atlanta'
p927
(S'33.636719'
S'-84.428067'
tp928
sa(dp929
S'Merced'
p930
(S'37.380481'
S'-120.568189'
tp931
sa(dp932
S'Sacramento'
p933
(S'38.667639'
S'-121.400611'
tp934
sa(dp935
S'Grand Rapids'
p936
(S'42.880833'
S'-85.522806'
tp937
sa(dp938
S'Wink'
p939
(S'31.779628'
S'-103.201361'
tp940
sa(dp941
S'Fresno'
p942
(S'36.776194'
S'-119.71814'
tp943
sa(dp944
S'Vero Beach'
p945
(S'27.655556'
S'-80.417944'
tp946
sa(dp947
S'Imperial'
p948
(S'32.834219'
S'-115.578744'
tp949
sa(dp950
S'Nashville'
p951
(S'36.124472'
S'-86.678194'
tp952
sa(dp953
S'Laredo'
p954
(S'27.54375'
S'-99.461556'
tp955
sa(dp956
S'Anchorage'
p957
(S'61.250986'
S'-149.806503'
tp958
sa(dp959
S'Kotzebue'
p960
(S'66.884678'
S'-162.59855'
tp961
sa(dp962
S'Altoona'
p963
(S'40.296372'
S'-78.320022'
tp964
sa(dp965
S'Abilene'
p966
(S'32.420756'
S'-99.8546'
tp967
sa(dp968
S'El Dorado'
p969
(S'33.220972'
S'-92.813278'
tp970
sa(dp971
S'New York'
p972
(S'40.777245'
S'-73.872608'
tp973
sa(dp974
S'Tallahassee'
p975
(S'30.396528'
S'-84.350333'
tp976
sa(dp977
S'West Chicago'
p978
(S'41.907778'
S'-88.248611'
tp979
sa(dp980
S'Waco'
p981
(S'31.611289'
S'-97.230519'
tp982
sa(dp983
S'Augusta'
p984
(S'44.320647'
S'-69.797317'
tp985
sa(dp986
S'Hillsboro'
p987
(S'32.083486'
S'-97.097228'
tp988
sa(dp989
S'Jacksonville'
p990
(S'30.235834'
S'-81.680556'
tp991
sa(dp992
S'Jackson'
p993
(S'35.599889'
S'-88.915611'
tp994
sa(dp995
S'Molokai'
p996
(S'21.152886'
S'-157.096256'
tp997
sa(dp998
S'Fort Knox'
p999
(S'37.907058'
S'-85.972106'
tp1000
sa(dp1001
S'Jacksonville'
p1002
(S'34.708417'
S'-77.439667'
tp1003
sa(dp1004
S'San Angelo'
p1005
(S'31.35775'
S'-100.496306'
tp1006
sa(dp1007
S'Calexico'
p1008
(S'32.669502'
S'-115.51333'
tp1009
sa(dp1010
S'Chico'
p1011
(S'39.795383'
S'-121.858422'
tp1012
sa(dp1013
S'Burlington'
p1014
(S'44.471861'
S'-73.153278'
tp1015
sa(dp1016
S'Jacksonville'
p1017
(S'30.494056'
S'-81.687861'
tp1018
sa(dp1019
S'Durango'
p1020
(S'37.151516'
S'-107.75377'
tp1021
sa(dp1022
S'Washington'
p1023
(S'38.944533'
S'-77.455811'
tp1024
sa(dp1025
S'College Station'
p1026
(S'30.588583'
S'-96.363833'
tp1027
sa(dp1028
S'Spokane'
p1029
(S'47.682819'
S'-117.322558'
tp1030
sa(dp1031
S'Milwaukee'
p1032
(S'42.947222'
S'-87.896583'
tp1033
sa(dp1034
S'Abilene'
p1035
(S'32.411319'
S'-99.681897'
tp1036
sa(dp1037
S'Columbia'
p1038
(S'38.818094'
S'-92.219631'
tp1039
sa(dp1040
S'Portland'
p1041
(S'45.588722'
S'-122.5975'
tp1042
sa(dp1043
S'Miami'
p1044
(S'25.861806'
S'-80.897'
tp1045
sa(dp1046
S'West Palm Beach'
p1047
(S'26.683161'
S'-80.095589'
tp1048
sa(dp1049
S'Fort Worth'
p1050
(S'32.819778'
S'-97.362444'
tp1051
sa(dp1052
S'Ogdensburg'
p1053
(S'44.681854'
S'-75.4655'
tp1054
sa(dp1055
S'Falmouth'
p1056
(S'41.658439'
S'-70.521417'
tp1057
sa(dp1058
S'Seattle'
p1059
(S'47.53'
S'-122.301947'
tp1060
sa(dp1061
S'San Antonio'
p1062
(S'29.384228'
S'-98.581108'
tp1063
sa(dp1064
S'Honolulu'
p1065
(S'21.318681'
S'-157.922428'
tp1066
sa(dp1067
S'Des Moines'
p1068
(S'41.533972'
S'-93.663083'
tp1069
sa(dp1070
S'New Bern'
p1071
(S'35.072972'
S'-77.042944'
tp1072
sa(dp1073
S'San Diego'
p1074
(S'32.733556'
S'-117.189667'
tp1075
sa(dp1076
S'Monroe'
p1077
(S'32.510864'
S'-92.037689'
tp1078
sa(dp1079
S'Sumter'
p1080
(S'33.972719'
S'-80.470564'
tp1081
sa(dp1082
S'Ontario'
p1083
(S'34.056'
S'-117.601194'
tp1084
sa(dp1085
S'Greenvile'
p1086
(S'33.067839'
S'-96.065333'
tp1087
sa(dp1088
S'Roswell'
p1089
(S'33.301556'
S'-104.530556'
tp1090
sa(dp1091
S'Detroit'
p1092
(S'42.409195'
S'-83.009861'
tp1093
sa(dp1094
S'Brownsville'
p1095
(S'25.906833'
S'-97.425861'
tp1096
sa(dp1097
S'Dothan'
p1098
(S'31.321339'
S'-85.449628'
tp1099
sa(dp1100
S'Wildwood'
p1101
(S'39.008507'
S'-74.908275'
tp1102
sa(dp1103
S'Fallon'
p1104
(S'39.416584'
S'-118.70098'
tp1105
sa(dp1106
S'Mount Clemens'
p1107
(S'42.608333'
S'-82.8355'
tp1108
sa(dp1109
S'Farmington'
p1110
(S'36.74125'
S'-108.229944'
tp1111
sa(dp1112
S'Corpus Christi'
p1113
(S'27.770361'
S'-97.501222'
tp1114
sa(dp1115
S'Syracuse'
p1116
(S'43.111187'
S'-76.106311'
tp1117
sa(dp1118
S'Key West'
p1119
(S'24.575834'
S'-81.688889'
tp1120
sa(dp1121
S'Chicago'
p1122
(S'41.785972'
S'-87.752417'
tp1123
sa(dp1124
S'San Jose'
p1125
(S'37.3626'
S'-121.929022'
tp1126
sa(dp1127
S'Hobbs'
p1128
(S'32.687528'
S'-103.217028'
tp1129
sa(dp1130
S'Philadelphia'
p1131
(S'40.081944'
S'-75.010586'
tp1132
sa(dp1133
S'Denver'
p1134
(S'39.861656'
S'-104.673178'
tp1135
sa(dp1136
S'Philadelphia'
p1137
(S'39.871944'
S'-75.241139'
tp1138
sa(dp1139
S'Sioux City'
p1140
(S'42.402603'
S'-96.384367'
tp1141
sa(dp1142
S'Macon'
p1143
(S'32.69285'
S'-83.649211'
tp1144
sa(dp1145
S'Truth Or Consequences'
p1146
(S'33.236944'
S'-107.27175'
tp1147
sa(dp1148
S'Palmdale'
p1149
(S'34.629391'
S'-118.08456'
tp1150
sa(dp1151
S'San Antonio'
p1152
(S'29.529675'
S'-98.2789'
tp1153
sa(dp1154
S'El Centro'
p1155
(S'32.829222'
S'-115.671667'
tp1156
sa(dp1157
S'Columbus'
p1158
(S'39.997972'
S'-82.891889'
tp1159
sa(dp1160
S'Fayetteville'
p1161
(S'36.005094'
S'-94.170059'
tp1162
sa(dp1163
S'Fort Sill'
p1164
(S'34.649833'
S'-98.402167'
tp1165
sa(dp1166
S'Princeton'
p1167
(S'45.559868'
S'-93.608217'
tp1168
sa(dp1169
S'Dayton'
p1170
(S'39.826111'
S'-84.048332'
tp1171
sa(dp1172
S'Galena'
p1173
(S'64.736178'
S'-156.937417'
tp1174
sa(dp1175
S'Chandler'
p1176
(S'33.269111'
S'-111.811111'
tp1177
sa(dp1178
S'Mineral Wells'
p1179
(S'32.781606'
S'-98.060175'
tp1180
sa(dp1181
S'Wichita'
p1182
(S'37.621853'
S'-97.268192'
tp1183
sa(dp1184
S'New Orleans'
p1185
(S'29.825333'
S'-90.035'
tp1186
sa(dp1187
S'Beaufort'
p1188
(S'32.477411'
S'-80.723161'
tp1189
sa(dp1190
S'Texarkana'
p1191
(S'33.453722'
S'-93.991028'
tp1192
sa(dp1193
S'Plattsburgh'
p1194
(S'44.650944'
S'-73.468139'
tp1195
sa(dp1196
S'Aberdeen'
p1197
(S'39.466219'
S'-76.168808'
tp1198
sa(dp1199
S'Tucumcari'
p1200
(S'35.182777'
S'-103.603186'
tp1201
sa(dp1202
S'Anchorage'
p1203
(S'61.174361'
S'-149.996361'
tp1204
sa(dp1205
S'Killeen'
p1206
(S'31.06725'
S'-97.828917'
tp1207
sa(dp1208
S'Zuni Pueblo'
p1209
(S'35.083228'
S'-108.791778'
tp1210
sa(dp1211
S'Bellingham'
p1212
(S'48.792694'
S'-122.537528'
tp1213
sa(dp1214
S'Millington'
p1215
(S'35.356667'
S'-89.870278'
tp1216
sa(dp1217
S'Elkins'
p1218
(S'38.889444'
S'-79.857139'
tp1219
sa(dp1220
S'Hartford'
p1221
(S'41.736722'
S'-72.649444'
tp1222
sa(dp1223
S'Smithfield'
p1224
(S'41.920764'
S'-71.491381'
tp1225
sa(dp1226
S'Mobile'
p1227
(S'30.691231'
S'-88.242814'
tp1228
sa(dp1229
S'Mountain View'
p1230
(S'37.416142'
S'-122.049139'
tp1231
sa(dp1232
S'Santa Fe'
p1233
(S'35.617108'
S'-106.089422'
tp1234
sa(dp1235
S'Barking Sands'
p1236
(S'22.022833'
S'-159.785'
tp1237
sa(dp1238
S'Deridder'
p1239
(S'30.831722'
S'-93.339917'
tp1240
sa(dp1241
S'Bradshaw Field'
p1242
(S'19.760056'
S'-155.553717'
tp1243
sa(dp1244
S'Nogales'
p1245
(S'31.417722'
S'-110.84789'
tp1246
sa(dp1247
S'Tampa'
p1248
(S'27.849339'
S'-82.521214'
tp1249
sa(dp1250
S'Belleville'
p1251
(S'38.545178'
S'-89.835183'
tp1252
sa(dp1253
S'Miami'
p1254
(S'25.907'
S'-80.278389'
tp1255
sa(dp1256
S'Del Rio'
p1257
(S'29.374208'
S'-100.927158'
tp1258
sa(dp1259
S'Fort Myers'
p1260
(S'26.536167'
S'-81.755167'
tp1261
sa(dp1262
S'King Salmon'
p1263
(S'58.676778'
S'-156.649278'
tp1264
sa(dp1265
S'Muir'
p1266
(S'40.434811'
S'-76.569411'
tp1267
sa(dp1268
S'Lahania-kapalua'
p1269
(S'20.962936'
S'-156.673031'
tp1270
sa(dp1271
S'New York'
p1272
(S'40.639751'
S'-73.778925'
tp1273
sa(dp1274
S'Homestead'
p1275
(S'25.48855'
S'-80.383567'
tp1276
sa(dp1277
S'Riverside'
p1278
(S'33.951875'
S'-117.445103'
tp1279
sa(dp1280
S'Fort Leavenworth'
p1281
(S'39.368332'
S'-94.914686'
tp1282
sa(dp1283
S'Wallops Island'
p1284
(S'37.940194'
S'-75.466389'
tp1285
sa(dp1286
S'Alamogordo'
p1287
(S'32.852519'
S'-106.106525'
tp1288
sa(dp1289
S'Willow Grove'
p1290
(S'40.199833'
S'-75.148167'
tp1291
sa(dp1292
S'Cheyenne'
p1293
(S'41.155722'
S'-104.811839'
tp1294
sa(dp1295
S'Stockton'
p1296
(S'37.894167'
S'-121.238306'
tp1297
sa(dp1298
S'Charleston'
p1299
(S'32.898647'
S'-80.040528'
tp1300
sa(dp1301
S'Reno'
p1302
(S'39.499108'
S'-119.768108'
tp1303
sa(dp1304
S'Ketchikan'
p1305
(S'55.355556'
S'-131.71375'
tp1306
sa(dp1307
S'Detroit'
p1308
(S'42.237928'
S'-83.530408'
tp1309
sa(dp1310
S'Lompoc'
p1311
(S'34.737333'
S'-120.584306'
tp1312
sa(dp1313
S'Birmingham'
p1314
(S'33.562942'
S'-86.75355'
tp1315
sa(dp1316
S'Lakehurst'
p1317
(S'40.033333'
S'-74.353333'
tp1318
sa(dp1319
S'Shemya'
p1320
(S'52.712275'
S'174.11362'
tp1321
sa(dp1322
S'Las Vegas'
p1323
(S'36.236197'
S'-115.034253'
tp1324
sa(dp1325
S'Riverside'
p1326
(S'33.880711'
S'-117.259453'
tp1327
sa(dp1328
S'Modesto'
p1329
(S'37.625817'
S'-120.954422'
tp1330
sa(dp1331
S'Sacramento'
p1332
(S'38.695417'
S'-121.590778'
tp1333
sa(dp1334
S'Chicago'
p1335
(S'42.422161'
S'-87.867908'
tp1336
sa(dp1337
S'Colorado Springs'
p1338
(S'38.805805'
S'-104.700778'
tp1339
sa(dp1340
S'Buffalo'
p1341
(S'42.940525'
S'-78.732167'
tp1342
sa(dp1343
S'Sandusky'
p1344
(S'41.433361'
S'-82.652333'
tp1345
sa(dp1346
S'Everett'
p1347
(S'47.906342'
S'-122.281564'
tp1348
sa(dp1349
S'Mountain Home'
p1350
(S'43.043603'
S'-115.872431'
tp1351
sa(dp1352
S'Cedar City'
p1353
(S'37.700967'
S'-113.098847'
tp1354
sa(dp1355
S'Windsor Locks'
p1356
(S'41.938889'
S'-72.683222'
tp1357
sa(dp1358
S'Mcallen'
p1359
(S'26.175833'
S'-98.238611'
tp1360
sa(dp1361
S'Norfolk'
p1362
(S'36.937644'
S'-76.289289'
tp1363
sa(dp1364
S'Chicopee Falls'
p1365
(S'42.194014'
S'-72.534783'
tp1366
sa(dp1367
S'Lubbock'
p1368
(S'33.663639'
S'-101.822778'
tp1369
sa(dp1370
S'Chicago'
p1371
(S'41.978603'
S'-87.904842'
tp1372
sa(dp1373
S'Boca Raton'
p1374
(S'26.3785'
S'-80.107694'
tp1375
sa(dp1376
S'Fairbanks'
p1377
(S'64.815114'
S'-147.856267'
tp1378
sa(dp1379
S'Quantico'
p1380
(S'38.501683'
S'-77.305333'
tp1381
sa(dp1382
S'Clovis'
p1383
(S'34.382775'
S'-103.322147'
tp1384
sa(dp1385
S'Kaneohe Bay'
p1386
(S'21.450453'
S'-157.768'
tp1387
sa(dp1388
S'Omaha'
p1389
(S'41.118332'
S'-95.912511'
tp1390
sa(dp1391
S'Gulkana'
p1392
(S'62.154888'
S'-145.456639'
tp1393
sa(dp1394
S'Watertown'
p1395
(S'43.991922'
S'-76.021739'
tp1396
sa(dp1397
S'Palm Springs'
p1398
(S'33.829667'
S'-116.506694'
tp1399
sa(dp1400
S'Amarillo'
p1401
(S'35.219369'
S'-101.705931'
tp1402
sa(dp1403
S'Fort Dodge'
p1404
(S'42.5512'
S'-94.191842'
tp1405
sa(dp1406
S'Shreveport'
p1407
(S'32.50182'
S'-93.662674'
tp1408
sa(dp1409
S'Topeka'
p1410
(S'38.950944'
S'-95.663611'
tp1411
sa(dp1412
S'Cotulla'
p1413
(S'28.456694'
S'-99.220294'
tp1414
sa(dp1415
S'Wilmington'
p1416
(S'34.270615'
S'-77.902569'
tp1417
sa(dp1418
S'Baton Rouge'
p1419
(S'30.533167'
S'-91.149639'
tp1420
sa(dp1421
S'Meridian'
p1422
(S'32.552083'
S'-88.555557'
tp1423
sa(dp1424
S'Tyler'
p1425
(S'32.354139'
S'-95.402386'
tp1426
sa(dp1427
S'Baltimore'
p1428
(S'39.175361'
S'-76.668333'
tp1429
sa(dp1430
S'Hobart'
p1431
(S'34.991308'
S'-99.051353'
tp1432
sa(dp1433
S'Lanai'
p1434
(S'20.785611'
S'-156.951419'
tp1435
sa(dp1436
S'Alexandria'
p1437
(S'31.3274'
S'-92.549833'
tp1438
sa(dp1439
S'White Sands'
p1440
(S'32.341484'
S'-106.40277'
tp1441
sa(dp1442
S'Cold Bay'
p1443
(S'55.206061'
S'-162.725436'
tp1444
sa(dp1445
S'Tulsa'
p1446
(S'36.198389'
S'-95.888111'
tp1447
sa(dp1448
S'Sitka'
p1449
(S'57.047138'
S'-135.361611'
tp1450
sa(dp1451
S'Islip'
p1452
(S'40.79525'
S'-73.100222'
tp1453
sa(dp1454
S'Minneapolis'
p1455
(S'44.881956'
S'-93.221767'
tp1456
sa(dp1457
S'Wilmington'
p1458
(S'39.678722'
S'-75.606528'
tp1459
sa(dp1460
S'Unalaska'
p1461
(S'53.900139'
S'-166.5435'
tp1462
sa(dp1463
S'New Orleans'
p1464
(S'29.993389'
S'-90.258028'
tp1465
sa(dp1466
S'Portland'
p1467
(S'43.646161'
S'-70.309281'
tp1468
sa(dp1469
S'Oklahoma City'
p1470
(S'35.393089'
S'-97.600733'
tp1471
sa(dp1472
S'Albany'
p1473
(S'42.748267'
S'-73.801692'
tp1474
sa(dp1475
S'Valdez'
p1476
(S'61.133949'
S'-146.248342'
tp1477
sa(dp1478
S'Hampton'
p1479
(S'37.082881'
S'-76.360547'
tp1480
sa(dp1481
S'Santa Ana'
p1482
(S'33.675667'
S'-117.868222'
tp1483
sa(dp1484
S'Colombus'
p1485
(S'33.643833'
S'-88.443833'
tp1486
sa(dp1487
S'Kendall-tamiami'
p1488
(S'25.647889'
S'-80.432777'
tp1489
sa(dp1490
S'Oceana'
p1491
(S'36.820703'
S'-76.033542'
tp1492
sa(dp1493
S'Peru'
p1494
(S'40.648094'
S'-86.152119'
tp1495
sa(dp1496
S'Casper'
p1497
(S'42.908'
S'-106.464417'
tp1498
sa(dp1499
S'Valparaiso'
p1500
(S'30.48325'
S'-86.5254'
tp1501
sa(dp1502
S'Selma'
p1503
(S'32.343947'
S'-86.987803'
tp1504
sa(dp1505
S'Key West'
p1506
(S'24.556111'
S'-81.759556'
tp1507
sa(dp1508
S'Charlotte'
p1509
(S'35.214'
S'-80.943139'
tp1510
sa(dp1511
S'Las Vegas'
p1512
(S'36.080056'
S'-115.15225'
tp1513
sa(dp1514
S'Orlando'
p1515
(S'28.429394'
S'-81.308994'
tp1516
sa(dp1517
S'Florence'
p1518
(S'34.185361'
S'-79.723889'
tp1519
sa(dp1520
S'Great Falls'
p1521
(S'47.482'
S'-111.370689'
tp1522
sa(dp1523
S'Youngstown'
p1524
(S'41.260736'
S'-80.679097'
tp1525
sa(dp1526
S'Fort Wainwright'
p1527
(S'64.8375'
S'-147.614444'
tp1528
sa(dp1529
S'Mackminnville'
p1530
(S'45.194444'
S'-123.135944'
tp1531
sa(dp1532
S'Macon'
p1533
(S'32.640144'
S'-83.59185'
tp1534
sa(dp1535
S'Pullman'
p1536
(S'46.743861'
S'-117.109583'
tp1537
sa(dp1538
S'Lewiston'
p1539
(S'46.3745'
S'-117.015389'
tp1540
sa(dp1541
S'Elmira'
p1542
(S'42.159889'
S'-76.891611'
tp1543
sa(dp1544
S'Ithaca'
p1545
(S'42.491028'
S'-76.458444'
tp1546
sa(dp1547
S'Monterey'
p1548
(S'36.587'
S'-121.842944'
tp1549
sa(dp1550
S'Santa Barbara'
p1551
(S'34.426211'
S'-119.840372'
tp1552
sa(dp1553
S'Daytona Beach'
p1554
(S'29.179917'
S'-81.058056'
tp1555
sa(dp1556
S'New York'
p1557
(S'40.701214'
S'-74.009028'
tp1558
sa(dp1559
S'Talkeetna'
p1560
(S'62.3205'
S'-150.093694'
tp1561
sa(dp1562
S'New Haven'
p1563
(S'41.26375'
S'-72.886806'
tp1564
sa(dp1565
S'Asheville'
p1566
(S'35.436194'
S'-82.541806'
tp1567
sa(dp1568
S'Greensboro'
p1569
(S'36.09775'
S'-79.937306'
tp1570
sa(dp1571
S'Sioux Falls'
p1572
(S'43.582014'
S'-96.741914'
tp1573
sa(dp1574
S'Manchester NH'
p1575
(S'42.932556'
S'-71.435667'
tp1576
sa(dp1577
S'Naples'
p1578
(S'26.152619'
S'-81.775294'
tp1579
sa(dp1580
S'Louisville'
p1581
(S'38.1740858'
S'-85.7364989'
tp1582
sa(dp1583
S'Charlottesville VA'
p1584
(S'38.138639'
S'-78.452861'
tp1585
sa(dp1586
S'Roanoke VA'
p1587
(S'37.325472'
S'-79.975417'
tp1588
sa(dp1589
S'Lexington KY'
p1590
(S'38.0365'
S'-84.605889'
tp1591
sa(dp1592
S'Evansville'
p1593
(S'38.036997'
S'-87.532364'
tp1594
sa(dp1595
S'Albuquerque'
p1596
(S'35.0402222'
S'-106.6091944'
tp1597
sa(dp1598
S'Bozeman'
p1599
(S'45.777643'
S'-111.160151'
tp1600
sa(dp1601
S'Billings'
p1602
(S'45.80921'
S'-108.537654'
tp1603
sa(dp1604
S'Butte'
p1605
(S'45.954806'
S'-112.497472'
tp1606
sa(dp1607
S'Traverse City'
p1608
(S'44.741445'
S'-85.582235'
tp1609
sa(dp1610
S'Bar Harbor'
p1611
(S'44.4497689'
S'-68.3615653'
tp1612
sa(dp1613
S'Rockland'
p1614
(S'44.0601111'
S'-69.0992303'
tp1615
sa(dp1616
S'Jacksn Hole'
p1617
(S'43.607333333'
S'-110.73775'
tp1618
sa(dp1619
S'Rockford'
p1620
(S'42.1953611'
S'-89.0972222'
tp1621
sa(dp1622
S'New York'
p1623
(S'40.7425'
S'-73.971944'
tp1624
sa(dp1625
S'Greenville'
p1626
(S'34.895556'
S'-82.218889'
tp1627
sa(dp1628
S'Bloomington'
p1629
(S'40.477111'
S'-88.915917'
tp1630
sa(dp1631
S'Gulfport'
p1632
(S'30.407278'
S'-89.070111'
tp1633
sa(dp1634
S'Kalamazoo'
p1635
(S'42.234875'
S'-85.552058'
tp1636
sa(dp1637
S'Toledo'
p1638
(S'41.586806'
S'-83.807833'
tp1639
sa(dp1640
S'Fort Wayne'
p1641
(S'40.978472'
S'-85.195139'
tp1642
sa(dp1643
S'Decatur'
p1644
(S'39.834564'
S'-88.865689'
tp1645
sa(dp1646
S'Cedar Rapids'
p1647
(S'41.884694'
S'-91.710806'
tp1648
sa(dp1649
S'La Crosse'
p1650
(S'43.878986'
S'-91.256711'
tp1651
sa(dp1652
S'Wassau'
p1653
(S'44.772726'
S'-89.646635'
tp1654
sa(dp1655
S'Peoria'
p1656
(S'40.664203'
S'-89.693258'
tp1657
sa(dp1658
S'Appleton'
p1659
(S'44.257526'
S'-88.507576'
tp1660
sa(dp1661
S'Rochester'
p1662
(S'43.908283'
S'-92.500014'
tp1663
sa(dp1664
S'Champaign'
p1665
(S'40.03925'
S'-88.278056'
tp1666
sa(dp1667
S'Manhattan'
p1668
(S'39.140972'
S'-96.670833'
tp1669
sa(dp1670
S'Franklin'
p1671
(S'41.377874'
S'-79.860362'
tp1672
sa(dp1673
S'Grand Junction'
p1674
(S'39.122413'
S'-108.526735'
tp1675
sa(dp1676
S'Saint George'
p1677
(S'37.090583'
S'-113.593056'
tp1678
sa(dp1679
S'Houston'
p1680
(S'30.063746'
S'-95.554276'
tp1681
sa(dp1682
S"Port O\\\\'Connor"
p1683
(S'28.429977'
S'-96.442859'
tp1684
sa(dp1685
S'Sarasota'
p1686
(S'27.395444'
S'-82.554389'
tp1687
sa(dp1688
S'Van Nuys'
p1689
(S'34.209811'
S'-118.489972'
tp1690
sa(dp1691
S'Titusville'
p1692
(S'28.622552'
S'-80.83541'
tp1693
sa(dp1694
S'Moline'
p1695
(S'41.448528'
S'-90.507539'
tp1696
sa(dp1697
S'Panama City'
p1698
(S'30.212083'
S'-85.682806'
tp1699
sa(dp1700
S'Orlando'
p1701
(S'28.398'
S'-81.57'
tp1702
sa(dp1703
S'Bismarck'
p1704
(S'46.775842'
S'-100.757931'
tp1705
sa(dp1706
S'Telluride'
p1707
(S'37.953759'
S'-107.90848'
tp1708
sa(dp1709
S'Rapid City'
p1710
(S'44.045278'
S'-103.057222'
tp1711
sa(dp1712
S'Carlsbad'
p1713
(S'33.0742'
S'-117.1648'
tp1714
sa(dp1715
S'Flint'
p1716
(S'42.965424'
S'-83.743629'
tp1717
sa(dp1718
S'Redding'
p1719
(S'40.509'
S'-122.293389'
tp1720
sa(dp1721
S'Eugene'
p1722
(S'44.124583'
S'-123.211972'
tp1723
sa(dp1724
S'Idaho Falls'
p1725
(S'43.514556'
S'-112.07075'
tp1726
sa(dp1727
S'Medford'
p1728
(S'42.374228'
S'-122.8735'
tp1729
sa(dp1730
S'Redmond-Bend'
p1731
(S'44.254066'
S'-121.149964'
tp1732
sa(dp1733
S'Akron'
p1734
(S'40.9160833'
S'-81.4421944'
tp1735
sa(dp1736
S'Huntsville'
p1737
(S'34.6371944'
S'-86.7750556'
tp1738
sa(dp1739
S'PARKERSBURG'
p1740
(S'39.3451039'
S'-81.4392031'
tp1741
sa(dp1742
S'MONTGOMERY'
p1743
(S'32.3006389'
S'-86.3939722'
tp1744
sa(dp1745
S'BRISTOL'
p1746
(S'36.4752222'
S'-82.4074167'
tp1747
sa(dp1748
S'PADUCAH'
p1749
(S'37.0602875'
S'-88.7729583'
tp1750
sa(dp1751
S'Kalispell'
p1752
(S'48.310472'
S'-114.256'
tp1753
sa(dp1754
S'Page'
p1755
(S'36.9261'
S'-111.4483'
tp1756
sa(dp1757
S'Saginaw'
p1758
(S'43.532913'
S'-84.079647'
tp1759
sa(dp1760
S'Binghamton'
p1761
(S'42.208689'
S'-75.979839'
tp1762
sa(dp1763
S'Blythe'
p1764
(S'33.619167'
S'-114.716889'
tp1765
sa(dp1766
S'Petersburg'
p1767
(S'56.801667'
S'-132.945278'
tp1768
sa(dp1769
S'Sanford'
p1770
(S'28.777639'
S'-81.237489'
tp1771
sa(dp1772
S'Johnstown'
p1773
(S'40.316111'
S'-78.833889'
tp1774
sa(dp1775
S'Missoula'
p1776
(S'46.916306'
S'-114.090556'
tp1777
sa(dp1778
S'Grand Canyon'
p1779
(S'35.9523611'
S'-112.1469722'
tp1780
sa(dp1781
S'Sugar Land'
p1782
(S'29.62225'
S'-95.6565278'
tp1783
sa(dp1784
S'Denver'
p1785
(S'39.570129'
S'-104.849294'
tp1786
sa(dp1787
S'Clovis'
p1788
(S'34.425139'
S'-103.079278'
tp1789
sa(dp1790
S'Fort Stockton'
p1791
(S'30.915667'
S'-102.916139'
tp1792
sa(dp1793
S'Las Vegas'
p1794
(S'35.654222'
S'-105.142389'
tp1795
sa(dp1796
S'Houston'
p1797
(S'29.818194'
S'-95.672611'
tp1798
sa(dp1799
S'La Junta'
p1800
(S'38.049719'
S'-103.509431'
tp1801
sa(dp1802
S'Las Cruces'
p1803
(S'32.289417'
S'-106.921972'
tp1804
sa(dp1805
S'Breckenridge'
p1806
(S'32.719047'
S'-98.891'
tp1807
sa(dp1808
S'Temple'
p1809
(S'31.1525'
S'-97.407778'
tp1810
sa(dp1811
S'Ozona'
p1812
(S'30.735281'
S'-101.202972'
tp1813
sa(dp1814
S'Waikoloa Village'
p1815
(S'19.9136'
S'-155.864'
tp1816
sa(dp1817
S'Vail'
p1818
(S'39.642556'
S'-106.917694'
tp1819
sa(dp1820
S'Denver'
p1821
(S'39.779255'
S'-104.88184'
tp1822
sa(dp1823
S'Richmond Heights'
p1824
(S'41.565124'
S'-81.4863555'
tp1825
sa(dp1826
S'Mansfield'
p1827
(S'40.8214167'
S'-82.5166389'
tp1828
sa(dp1829
S'Columbus'
p1830
(S'32.5163333'
S'-84.9388611'
tp1831
sa(dp1832
S'Lawton'
p1833
(S'34.5677144'
S'-98.4166367'
tp1834
sa(dp1835
S'Fort Collins'
p1836
(S'40.451828'
S'-105.011336'
tp1837
sa(dp1838
S'Flagstaff'
p1839
(S'35.140318'
S'-111.6692392'
tp1840
sa(dp1841
S'South Lake Tahoe'
p1842
(S'38.893889'
S'-119.995278'
tp1843
sa(dp1844
S'Twin Falls'
p1845
(S'42.481803'
S'-114.487733'
tp1846
sa(dp1847
S'Vineyard Haven MA'
p1848
(S'41.391667'
S'-70.615278'
tp1849
sa(dp1850
S'Newport RI'
p1851
(S'41.533056'
S'-71.282222'
tp1852
sa(dp1853
S'Springfield VT'
p1854
(S'43.343333'
S'-72.517222'
tp1855
sa(dp1856
S'Concord NH'
p1857
(S'43.20267'
S'-71.50233'
tp1858
sa(dp1859
S'Sanford ME'
p1860
(S'43.39383'
S'-70.708'
tp1861
sa(dp1862
S'Groton CT'
p1863
(S'41.330056'
S'-72.045139'
tp1864
sa(dp1865
S'Saint Cloud'
p1866
(S'45.546556'
S'-94.059889'
tp1867
sa(dp1868
S'Columbus Mississippi'
p1869
(S'33.450333'
S'-88.591361'
tp1870
sa(dp1871
S'Hoquiam'
p1872
(S'46.9711944'
S'-123.9365556'
tp1873
sa(dp1874
S'Erie'
p1875
(S'42.082022'
S'-80.176217'
tp1876
sa(dp1877
S'Barnstable'
p1878
(S'41.669336'
S'-70.280356'
tp1879
sa(dp1880
S'Sedona'
p1881
(S'34.848628'
S'-111.788472'
tp1882
sa(dp1883
S'Dry Tortugas'
p1884
(S'24.62'
S'-82.87'
tp1885
sa(dp1886
S'Dry Tortugas'
p1887
(S'24.62'
S'24.62'
tp1888
sa(dp1889
S'Dry Tortugas'
p1890
(S'24.628'
S'82.873'
tp1891
sa(dp1892
S'Morgantown'
p1893
(S'39.642908'
S'-79.916314'
tp1894
sa(dp1895
S'Charleston'
p1896
(S'38.373147'
S'-81.593189'
tp1897
sa(dp1898
S'Scranton'
p1899
(S'41.338478'
S'-75.723403'
tp1900
sa(dp1901
S'Bemidji'
p1902
(S'47.510722'
S'-94.934722'
tp1903
sa(dp1904
S'Fargo'
p1905
(S'46.92065'
S'-96.8157639'
tp1906
sa(dp1907
S'Kansas City'
p1908
(S'39.1275'
S'-94.598889'
tp1909
sa(dp1910
S'Mesa'
p1911
(S'33.307833'
S'-111.655'
tp1912
sa(dp1913
S'Gillette'
p1914
(S'44.3489167'
S'-105.5393611'
tp1915
sa(dp1916
S'Santa Ana'
p1917
(S'33.676132'
S'-117.731164'
tp1918
sa(dp1919
S'East Tawas'
p1920
(S'44.311'
S'-83.422'
tp1921
sa(dp1922
S'State College Pennsylvania'
p1923
(S'40.849278'
S'-77.848694'
tp1924
sa(dp1925
S'Meridian'
p1926
(S'32.332624'
S'-88.751868'
tp1927
sa(dp1928
S'Springfield'
p1929
(S'39.8441'
S'-89.677889'
tp1930
sa(dp1931
S'Cortez'
p1932
(S'37.303'
S'-108.628056'
tp1933
sa(dp1934
S'Hayden'
p1935
(S'40.481181'
S'-107.21766'
tp1936
sa(dp1937
S'Gallup'
p1938
(S'35.511058'
S'-108.789308'
tp1939
sa(dp1940
S'Liberal'
p1941
(S'37.044222'
S'-100.95986'
tp1942
sa(dp1943
S'Lamar'
p1944
(S'38.069694'
S'-102.6885'
tp1945
sa(dp1946
S'Goodland'
p1947
(S'39.370621'
S'-101.698992'
tp1948
sa(dp1949
S'Cody'
p1950
(S'44.520194'
S'-109.023806'
tp1951
sa(dp1952
S'Springfield'
p1953
(S'37.245667'
S'-93.388639'
tp1954
sa(dp1955
S'Joplin'
p1956
(S'37.151814'
S'-94.498269'
tp1957
sa(dp1958
S'Allentown'
p1959
(S'40.652083'
S'-75.440806'
tp1960
sa(dp1961
S'Bentonville'
p1962
(S'36.2818694'
S'-94.3068111'
tp1963
sa(dp1964
S'South Bend'
p1965
(S'41.708661'
S'-86.31725'
tp1966
sa(dp1967
S'Washington'
p1968
(S'38.89746'
S'-77.00643'
tp1969
sa(dp1970
S'Fort Wayne IN'
p1971
(S'41.143353'
S'-85.152778'
tp1972
sa(dp1973
S'Arcata CA'
p1974
(S'40.978111'
S'-124.108611'
tp1975
sa(dp1976
S'Austin TX'
p1977
(S'30.31666'
S'-97.7666'
tp1978
sa(dp1979
S'Jacksonville NC'
p1980
(S'34.829164'
S'-77.612139'
tp1981
sa(dp1982
S'Tuscaloosa AL'
p1983
(S'33.220627'
S'-87.611403'
tp1984
sa(dp1985
S'Dubuque IA'
p1986
(S'42.402'
S'-90.709472'
tp1987
sa(dp1988
S'Molokai'
p1989
(S'21.211'
S'-156.974'
tp1990
sa(dp1991
S'Wrangell'
p1992
(S'56.4843'
S'-132.37'
tp1993
sa(dp1994
S'Chevak'
p1995
(S'61.5338'
S'-165.584'
tp1996
sa(dp1997
S'Aniak'
p1998
(S'61.5816'
S'-159.543'
tp1999
sa(dp2000
S'Mountain Village'
p2001
(S'62.0954'
S'-163.682'
tp2002
sa(dp2003
S'Mcgrath'
p2004
(S'62.9529'
S'-155.606'
tp2005
sa(dp2006
S'Kalskag'
p2007
(S'61.5363'
S'-160.341'
tp2008
sa(dp2009
S'Haines'
p2010
(S'59.2438'
S'-135.524'
tp2011
sa(dp2012
S'Holy Cross'
p2013
(S'62.1883'
S'-159.775'
tp2014
sa(dp2015
S'Skagway'
p2016
(S'59.4601'
S'-135.316'
tp2017
sa(dp2018
S'Gustavus'
p2019
(S'58.4253'
S'-135.707'
tp2020
sa(dp2021
S'Adak Island'
p2022
(S'51.878'
S'-176.646'
tp2023
sa(dp2024
S'Yakima'
p2025
(S'46.5682'
S'-120.544'
tp2026
sa(dp2027
S'Worland'
p2028
(S'43.9657'
S'-107.951'
tp2029
sa(dp2030
S'Valdosta'
p2031
(S'30.7825'
S'-83.2767'
tp2032
sa(dp2033
S'Victoria'
p2034
(S'28.8526'
S'-96.9185'
tp2035
sa(dp2036
S'Quincy'
p2037
(S'39.9427'
S'-91.1946'
tp2038
sa(dp2039
S'Tupelo'
p2040
(S'34.2681'
S'-88.7699'
tp2041
sa(dp2042
S'Santa Maria'
p2043
(S'34.8989'
S'-120.457'
tp2044
sa(dp2045
S'Salina'
p2046
(S'38.791'
S'-97.6522'
tp2047
sa(dp2048
S'Saranac Lake'
p2049
(S'44.3853'
S'-74.2062'
tp2050
sa(dp2051
S'Sheridan'
p2052
(S'44.7692'
S'-106.98'
tp2053
sa(dp2054
S'San Luis Obispo'
p2055
(S'35.2368'
S'-120.642'
tp2056
sa(dp2057
S'Rutland'
p2058
(S'43.5294'
S'-72.9496'
tp2059
sa(dp2060
S'Rock Springs'
p2061
(S'41.5942'
S'-109.065'
tp2062
sa(dp2063
S'Rhinelander'
p2064
(S'45.6312'
S'-89.4675'
tp2065
sa(dp2066
S'Reading'
p2067
(S'40.3785'
S'-75.9652'
tp2068
sa(dp2069
S'Portsmouth'
p2070
(S'43.0779'
S'-70.8233'
tp2071
sa(dp2072
S'Pellston'
p2073
(S'45.5709'
S'-84.7967'
tp2074
sa(dp2075
S'Pierre'
p2076
(S'44.3827'
S'-100.286'
tp2077
sa(dp2078
S'Pocatello'
p2079
(S'42.9098'
S'-112.596'
tp2080
sa(dp2081
S'Hattiesburg/Laurel'
p2082
(S'31.4671'
S'-89.3371'
tp2083
sa(dp2084
S'Owensboro'
p2085
(S'37.7401'
S'-87.1668'
tp2086
sa(dp2087
S'North Bend'
p2088
(S'43.4171'
S'-124.246'
tp2089
sa(dp2090
S'Muscle Shoals'
p2091
(S'34.7453'
S'-87.6102'
tp2092
sa(dp2093
S'Miles City'
p2094
(S'46.428'
S'-105.886'
tp2095
sa(dp2096
S'Muskegon'
p2097
(S'43.1695'
S'-86.2382'
tp2098
sa(dp2099
S'Lynchburg'
p2100
(S'37.3267'
S'-79.2004'
tp2101
sa(dp2102
S'Lewistown'
p2103
(S'47.0493'
S'-109.467'
tp2104
sa(dp2105
S'Lancaster'
p2106
(S'40.1217'
S'-76.2961'
tp2107
sa(dp2108
S'Klamath Falls'
p2109
(S'42.1561'
S'-121.733'
tp2110
sa(dp2111
S'Lebanon'
p2112
(S'43.6261'
S'-72.3042'
tp2113
sa(dp2114
S'North Platte'
p2115
(S'41.1262'
S'-100.684'
tp2116
sa(dp2117
S'Latrobe'
p2118
(S'40.2759'
S'-79.4048'
tp2119
sa(dp2120
S'Laramie'
p2121
(S'41.3121'
S'-105.675'
tp2122
sa(dp2123
S'Jamestown'
p2124
(S'46.9297'
S'-98.6782'
tp2125
sa(dp2126
S'Kirksville'
p2127
(S'40.0935'
S'-92.5449'
tp2128
sa(dp2129
S'Huntington'
p2130
(S'38.3667'
S'-82.558'
tp2131
sa(dp2132
S'Hot Springs'
p2133
(S'34.478'
S'-93.0962'
tp2134
sa(dp2135
S'Grand Island'
p2136
(S'40.9675'
S'-98.3096'
tp2137
sa(dp2138
S'Glasgow'
p2139
(S'48.2125'
S'-106.615'
tp2140
sa(dp2141
S'Fayetteville'
p2142
(S'34.9912'
S'-78.8803'
tp2143
sa(dp2144
S'New Bedford'
p2145
(S'41.6761'
S'-70.9569'
tp2146
sa(dp2147
S'Elko'
p2148
(S'40.8249'
S'-115.792'
tp2149
sa(dp2150
S'Eau Claire'
p2151
(S'44.8658'
S'-91.4843'
tp2152
sa(dp2153
S'Du Bois'
p2154
(S'41.1783'
S'-78.8987'
tp2155
sa(dp2156
S'Dodge City'
p2157
(S'37.7634'
S'-99.9656'
tp2158
sa(dp2159
S'Hancock'
p2160
(S'47.1684'
S'-88.4891'
tp2161
sa(dp2162
S'Port Angeles'
p2163
(S'48.1202'
S'-123.5'
tp2164
sa(dp2165
S'Clarksburg'
p2166
(S'39.2966'
S'-80.2281'
tp2167
sa(dp2168
S'Sault Ste Marie'
p2169
(S'46.2508'
S'-84.4724'
tp2170
sa(dp2171
S'Cape Girardeau'
p2172
(S'37.2253'
S'-89.5708'
tp2173
sa(dp2174
S'Crescent City'
p2175
(S'41.7802'
S'-124.237'
tp2176
sa(dp2177
S'Burlington'
p2178
(S'40.7832'
S'-91.1255'
tp2179
sa(dp2180
S'Brunswick'
p2181
(S'31.2588'
S'-81.4665'
tp2182
sa(dp2183
S'Beckley'
p2184
(S'37.7873'
S'-81.1242'
tp2185
sa(dp2186
S'Scottsbluff'
p2187
(S'41.874'
S'-103.596'
tp2188
sa(dp2189
S'Bradford'
p2190
(S'41.8031'
S'-78.6401'
tp2191
sa(dp2192
S'Watertown'
p2193
(S'44.914'
S'-97.1547'
tp2194
sa(dp2195
S'Alpena'
p2196
(S'45.0781'
S'-83.5603'
tp2197
sa(dp2198
S'Walla Walla'
p2199
(S'46.0949'
S'-118.288'
tp2200
sa(dp2201
S'Waterloo'
p2202
(S'42.5571'
S'-92.4003'
tp2203
sa(dp2204
S'Alamogordo'
p2205
(S'32.8399'
S'-105.991'
tp2206
sa(dp2207
S'Athens'
p2208
(S'33.9486'
S'-83.3263'
tp2209
sa(dp2210
S'Albany'
p2211
(S'31.5355'
S'-84.1945'
tp2212
sa(dp2213
S'Aberdeen'
p2214
(S'45.4491'
S'-98.4218'
tp2215
sa(dp2216
S'Fremont'
p2217
(S'41.3331'
S'-83.1612'
tp2218
sa(dp2219
S'Aleknagik'
p2220
(S'59.2826'
S'-158.618'
tp2221
sa(dp2222
S'Brookings'
p2223
(S'44.3048'
S'-96.8169'
tp2224
sa(dp2225
S'Bluefield'
p2226
(S'37.2958'
S'-81.2077'
tp2227
sa(dp2228
S'Kearney'
p2229
(S'40.727'
S'-99.0068'
tp2230
sa(dp2231
S'Greenville'
p2232
(S'33.4829'
S'-90.9856'
tp2233
sa(dp2234
S'Bullhead'
p2235
(S'35.1574'
S'-114.56'
tp2236
sa(dp2237
S'Kingman'
p2238
(S'35.2595'
S'-113.938'
tp2239
sa(dp2240
S'Pasco'
p2241
(S'46.2647'
S'-119.119'
tp2242
sa(dp2243
S'Akutan'
p2244
(S'54.1325'
S'-165.785'
tp2245
sa(dp2246
S'Silver City'
p2247
(S'32.6365'
S'-108.156'
tp2248
sa(dp2249
S'Lopez'
p2250
(S'48.4839'
S'-122.938'
tp2251
sa(dp2252
S'Worcester'
p2253
(S'42.2673'
S'-71.8757'
tp2254
sa(dp2255
S'New Rochelle'
p2256
(S'40.913923'
S'-73.782008'
tp2257
sa(dp2258
S'Anoka'
p2259
(S'45.1448889'
S'-93.2101944'
tp2260
sa(dp2261
S'New Haven'
p2262
(S'41.298669'
S'-72.925992'
tp2263
sa(dp2264
S'Chicago'
p2265
(S'41.8791966'
S'-87.6388507'
tp2266
sa(dp2267
S'Bremerton'
p2268
(S'47.490244'
S'-122.764814'
tp2269
sa(dp2270
S'Spencer'
p2271
(S'43.165527'
S'-95.202805'
tp2272
sa(dp2273
S'Jefferson City'
p2274
(S'38.5912'
S'-92.1561'
tp2275
sa(dp2276
S'Grand Canyon West'
p2277
(S'35.5925'
S'-113.4859'
tp2278
sa(dp2279
S'Boulder City'
p2280
(S'35.5651'
S'-114.514'
tp2281
sa(dp2282
S'Glenview'
p2283
(S'42.074197'
S'-87.805346'
tp2284
sa(dp2285
S'Baltimore'
p2286
(S'39.307408'
S'-76.615552'
tp2287
sa(dp2288
S'Provincetown'
p2289
(S'42.071945'
S'-70.22139'
tp2290
sa(dp2291
S'Seattle'
p2292
(S'47.629'
S'-122.339'
tp2293
sa(dp2294
S'Fullerton'
p2295
(S'33.521925'
S'-117.584722'
tp2296
sa(dp2297
S'Concord'
p2298
(S'35.387775'
S'-80.709136'
tp2299
sa(dp2300
S'Hailey'
p2301
(S'43.504444'
S'-114.296194'
tp2302
sa(dp2303
S'Mason City'
p2304
(S'43.2247'
S'-93.4067'
tp2305
sa(dp2306
S'Byron'
p2307
(S'37.8284'
S'-121.626'
tp2308
sa(dp2309
S'St. Marys'
p2310
(S'40.5553253'
S'-84.3866186'
tp2311
sa(dp2312
S'Wenatchee'
p2313
(S'47.398'
S'-120.206'
tp2314
sa(dp2315
S'Oshkosh'
p2316
(S'44.024983'
S'-88.551336'
tp2317
sa(dp2318
S'Benton Harbor'
p2319
(S'42.1285833'
S'-86.4285'
tp2320
sa(dp2321
S'Waukesha'
p2322
(S'43.0410278'
S'-88.2370556'
tp2323
sa(dp2324
S'Greenwood'
p2325
(S'42.4028889'
S'-88.3751111'
tp2326
sa(dp2327
S'Everglades'
p2328
(S'25.8488611'
S'-81.3902778'
tp2329
sa(dp2330
S'Togiak Village'
p2331
(S'59.0528'
S'-160.397'
tp2332
sa(dp2333
S'Port Heiden'
p2334
(S'56.9591'
S'-158.633'
tp2335
sa(dp2336
S'King Cove'
p2337
(S'55.1163'
S'-162.266'
tp2338
sa(dp2339
S'New Stuyahok'
p2340
(S'59.4499'
S'-157.328'
tp2341
sa(dp2342
S'Igiugig'
p2343
(S'59.324'
S'-155.902'
tp2344
sa(dp2345
S'Deering'
p2346
(S'66.0696'
S'-162.766'
tp2347
sa(dp2348
S'Sand Point'
p2349
(S'55.315'
S'-160.523'
tp2350
sa(dp2351
S'Hagerstown'
p2352
(S'39.7079'
S'-77.7295'
tp2353
sa(dp2354
S'Port Clarence'
p2355
(S'65.2537'
S'-166.859'
tp2356
sa(dp2357
S'Arctic Village'
p2358
(S'68.1147'
S'-145.579'
tp2359
sa(dp2360
S'Noatak'
p2361
(S'67.5661'
S'-162.975'
tp2362
sa(dp2363
S'Savoonga'
p2364
(S'63.6864'
S'-170.493'
tp2365
sa(dp2366
S'Shishmaref'
p2367
(S'66.2496'
S'-166.089'
tp2368
sa(dp2369
S'Ruby'
p2370
(S'64.7272'
S'-155.47'
tp2371
sa(dp2372
S'Point Hope'
p2373
(S'68.3488'
S'-166.799'
tp2374
sa(dp2375
S'Mekoryuk'
p2376
(S'60.3714'
S'-166.271'
tp2377
sa(dp2378
S'Kivalina'
p2379
(S'67.7362'
S'-164.563'
tp2380
sa(dp2381
S"St Mary's"
p2382
(S'62.0605'
S'-163.302'
tp2383
sa(dp2384
S'Kaltag'
p2385
(S'64.3191'
S'-158.741'
tp2386
sa(dp2387
S'Hooper Bay'
p2388
(S'61.5239'
S'-166.147'
tp2389
sa(dp2390
S'Gambell'
p2391
(S'63.7668'
S'-171.733'
tp2392
sa(dp2393
S'Atqasuk'
p2394
(S'70.4673'
S'-157.436'
tp2395
sa(dp2396
S'Anvik'
p2397
(S'62.6467'
S'-160.191'
tp2398
sa(dp2399
S'Anaktuvuk Pass'
p2400
(S'68.1336'
S'-151.743'
tp2401
sa(dp2402
S'Dallas'
p2403
(S'32.769167'
S'-97.441528'
tp2404
sa(dp2405
S'Gary'
p2406
(S'41.6163'
S'-87.4128'
tp2407
sa(dp2408
S'Brainerd'
p2409
(S'46.398308'
S'-94.138078'
tp2410
sa(dp2411
S'Lewisburg'
p2412
(S'37.858333'
S'-80.399444'
tp2413
sa(dp2414
S'Greenville'
p2415
(S'35.635278'
S'-77.385278'
tp2416
sa(dp2417
S'Chefornak'
p2418
(S'60.149167'
S'-164.285556'
tp2419
sa(dp2420
S'Oxnard'
p2421
(S'34.200833'
S'-119.207222'
tp2422
sa(dp2423
S'Branson'
p2424
(S'36.531994'
S'-93.200556'
tp2425
sa(dp2426
S'Baltimore'
p2427
(S'39.307222'
S'-76.615556'
tp2428
sa(dp2429
S'New York'
p2430
(S'40.7505'
S'-73.9935'
tp2431
sa(dp2432
S'Scotia NY'
p2433
(S'42.85245555'
S'-73.928866666'
tp2434
sa(dp2435
S'St. Augustine Airport'
p2436
(S'29.959167'
S'-81.339722'
tp2437
sa(dp2438
S'Santa Rosa'
p2439
(S'38.508978'
S'-122.81288'
tp2440
sa(dp2441
S'Kissimmee'
p2442
(S'28.289806'
S'-81.437083'
tp2443
sa(dp2444
S'Lake City'
p2445
(S'30.181944'
S'-82.576944'
tp2446
sa(dp2447
S'DeLand'
p2448
(S'29.066944'
S'-81.283889'
tp2449
sa(dp2450
S'Green Cove Springs'
p2451
(S'29.903021'
S'-81.685923'
tp2452
sa(dp2453
S'Logan'
p2454
(S'41.791'
S'-111.852'
tp2455
sa(dp2456
S'Brigham City'
p2457
(S'41.552'
S'-112.062'
tp2458
sa(dp2459
S'Malad City'
p2460
(S'42.17'
S'-112.289'
tp2461
sa(dp2462
S'Aspen'
p2463
(S'39.2232'
S'-106.869'
tp2464
sa(dp2465
S'Hilton Head'
p2466
(S'32.216'
S'-80.752'
tp2467
sa(dp2468
S'Philadelphia'
p2469
(S'39.9557'
S'-75.182'
tp2470
sa(dp2471
S'Brownwood'
p2472
(S'31.7936111'
S'-98.9565'
tp2473
sa(dp2474
S'Mexia'
p2475
(S'31.6411783'
S'-96.5144594'
tp2476
sa(dp2477
S'Kerrville'
p2478
(S'29.9766667'
S'-99.0854722'
tp2479
sa(dp2480
S'Georgetown'
p2481
(S'38.689194'
S'-75.358889'
tp2482
sa(dp2483
S'Great Bend'
p2484
(S'38.344167'
S'-98.859167'
tp2485
sa(dp2486
S'Hays'
p2487
(S'38.8422'
S'-99.2732'
tp2488
sa(dp2489
S'Null'
p2490
(S'38.662119'
S'-90.652044'
tp2491
sa(dp2492
S'Ely'
p2493
(S'47.824444'
S'-91.830833'
tp2494
sa(dp2495
S'Grand Rapids MN'
p2496
(S'47.211111'
S'-93.509722'
tp2497
sa(dp2498
S'Thief River Falls'
p2499
(S'48.065556'
S'-96.185'
tp2500
sa(dp2501
S'Eagle River'
p2502
(S'45.932333'
S'-89.268283'
tp2503
sa(dp2504
S'Minocqua - Woodruff'
p2505
(S'45.927778'
S'-89.730833'
tp2506
sa(dp2507
S'Ankeny'
p2508
(S'41.691389'
S'-93.566389'
tp2509
sa(dp2510
S'Corpus Christi'
p2511
(S'27.692701'
S'-97.290376'
tp2512
sa(dp2513
S'Catalina Island'
p2514
(S'33.405'
S'-118.415833'
tp2515
sa(dp2516
S'Mojave'
p2517
(S'35.059364'
S'-118.151856'
tp2518
sa(dp2519
S'Kenmore'
p2520
(S'47.7548'
S'-122.259'
tp2521
sa(dp2522
S'Hutchinson'
p2523
(S'38.0655'
S'-97.8606'
tp2524
sa(dp2525
S'Eagle'
p2526
(S'39.6427611'
S'-106.9159347'
tp2527
sa(dp2528
S'Oak Lawn'
p2529
(S'41.7198242969588'
S'-87.7488327026367'
tp2530
sa(dp2531
S'Chicago'
p2532
(S'41.948958067066'
S'-87.6587533950806'
tp2533
sa(dp2534
S'Rosecrans'
p2535
(S'39.771944'
S'-94.909706'
tp2536
sa(dp2537
S'Hartford'
p2538
(S'41.76888'
S'-72.6815'
tp2539
sa(dp2540
S'Stamford'
p2541
(S'41.046937'
S'-73.541493'
tp2542
sa(dp2543
S'Newark'
p2544
(S'40.734722'
S'-74.164167'
tp2545
sa(dp2546
S'Camp Douglas'
p2547
(S'43.938956'
S'-90.253433'
tp2548
sa(dp2549
S'Beauford'
p2550
(S'32.41083'
S'-80.635'
tp2551
sa(dp2552
S'Gunnison'
p2553
(S'38.533889'
S'-106.933056'
tp2554
sa(dp2555
S'Torrance'
p2556
(S'33.803392'
S'-118.339611'
tp2557
sa(dp2558
S'Manistee'
p2559
(S'44.2725'
S'-86.246944'
tp2560
sa(dp2561
S'Honolulu'
p2562
(S'21.318681'
S'-157.922427'
tp2563
sa(dp2564
S'Punta Gorda'
p2565
(S'26.919722'
S'-81.990556'
tp2566
sa(dp2567
S'Grand Canyon'
p2568
(S'35.96666666'
S'-112.13333333'
tp2569
sa(dp2570
S'Frenchville'
p2571
(S'47.285556'
S'-68.312778'
tp2572
sa(dp2573
S'Jamestown'
p2574
(S'42.153333'
S'-79.258056'
tp2575
sa(dp2576
S'Somerset'
p2577
(S'37.053611'
S'-84.615556'
tp2578
sa(dp2579
S'Weyers Cave'
p2580
(S'38.263889'
S'-78.896389'
tp2581
sa(dp2582
S'Devils Lake'
p2583
(S'48.114444'
S'-98.908611'
tp2584
sa(dp2585
S'Dickinson'
p2586
(S'46.7975'
S'-102.801944'
tp2587
sa(dp2588
S'Sidney'
p2589
(S'47.706944'
S'-104.1925'
tp2590
sa(dp2591
S'Chadron'
p2592
(S'42.8375'
S'-103.095556'
tp2593
sa(dp2594
S'Alliance'
p2595
(S'42.053333'
S'-102.803889'
tp2596
sa(dp2597
S'McCook'
p2598
(S'40.206389'
S'-100.592222'
tp2599
sa(dp2600
S'Marathon'
p2601
(S'24.726111'
S'-81.051389'
tp2602
sa(dp2603
S'Glendive'
p2604
(S'47.138611'
S'-104.807222'
tp2605
sa(dp2606
S'Wolf Point'
p2607
(S'48.094444'
S'-105.575'
tp2608
sa(dp2609
S'West Yellowstone'
p2610
(S'44.688333'
S'-111.1175'
tp2611
sa(dp2612
S'Alamosa'
p2613
(S'37.435'
S'-105.866667'
tp2614
sa(dp2615
S'Moab'
p2616
(S'38.755'
S'-109.754722'
tp2617
sa(dp2618
S'Ely'
p2619
(S'39.299722'
S'-114.841944'
tp2620
sa(dp2621
S'Vernal'
p2622
(S'40.440833'
S'-109.51'
tp2623
sa(dp2624
S'Ruidoso'
p2625
(S'33.46285'
S'-105.534751'
tp2626
sa(dp2627
S'Show Low'
p2628
(S'34.265556'
S'-110.005556'
tp2629
sa(dp2630
S'McCall'
p2631
(S'44.889722'
S'-116.101389'
tp2632
sa(dp2633
S'Salmon'
p2634
(S'45.123889'
S'-113.881389'
tp2635
sa(dp2636
S'Mammoth Lakes'
p2637
(S'37.624049'
S'-118.837772'
tp2638
sa(dp2639
S'Friday Harbor'
p2640
(S'48.521944'
S'-123.024444'
tp2641
sa(dp2642
S'Eastsound'
p2643
(S'48.708056'
S'-122.910556'
tp2644
sa(dp2645
S'Anacortes'
p2646
(S'48.498889'
S'-122.6625'
tp2647
sa(dp2648
S'Astoria'
p2649
(S'46.157972'
S'-123.878694'
tp2650
sa(dp2651
S'Newport'
p2652
(S'44.580361'
S'-124.057917'
tp2653
sa(dp2654
S'Emmonak'
p2655
(S'62.786111'
S'-164.490833'
tp2656
sa(dp2657
S'Unalakleet'
p2658
(S'63.888333'
S'-160.798889'
tp2659
sa(dp2660
S'Kuparuk'
p2661
(S'70.330833'
S'-149.5975'
tp2662
sa(dp2663
S'Shageluk'
p2664
(S'62.692222'
S'-159.569167'
tp2665
sa(dp2666
S'Chuathbaluk'
p2667
(S'61.579167'
S'-159.215556'
tp2668
sa(dp2669
S'Nuiqsut'
p2670
(S'70.21'
S'-151.005556'
tp2671
sa(dp2672
S'Eek'
p2673
(S'60.213611'
S'-162.043889'
tp2674
sa(dp2675
S'Kasigluk'
p2676
(S'60.873333'
S'-162.524444'
tp2677
sa(dp2678
S'Kwethluk'
p2679
(S'60.790278'
S'-161.443611'
tp2680
sa(dp2681
S'Kwigillingok'
p2682
(S'59.876389'
S'-163.168611'
tp2683
sa(dp2684
S'Marshall'
p2685
(S'61.8646418'
S'-162.026111'
tp2686
sa(dp2687
S'Russian Mission'
p2688
(S'61.775'
S'-161.319444'
tp2689
sa(dp2690
S'Tuntutuliak'
p2691
(S'60.335278'
S'-162.666944'
tp2692
sa(dp2693
S'Ekwok'
p2694
(S'59.356944'
S'-157.471111'
tp2695
sa(dp2696
S'Koliganek'
p2697
(S'59.726667'
S'-157.259444'
tp2698
sa(dp2699
S'Levelock'
p2700
(S'59.128056'
S'-156.858611'
tp2701
sa(dp2702
S'Manokotak'
p2703
(S'58.990278'
S'-159.05'
tp2704
sa(dp2705
S'Twin Hills'
p2706
(S'59.074444'
S'-160.275'
tp2707
sa(dp2708
S'Chalkyitsik'
p2709
(S'66.645'
S'-143.74'
tp2710
sa(dp2711
S'Eagle'
p2712
(S'64.778056'
S'-141.149722'
tp2713
sa(dp2714
S'Hughes'
p2715
(S'66.039167'
S'-154.264722'
tp2716
sa(dp2717
S'Huslia'
p2718
(S'65.697778'
S'-156.351389'
tp2719
sa(dp2720
S'Livingood'
p2721
(S'65.531111'
S'-148.541111'
tp2722
sa(dp2723
S'Minto'
p2724
(S'65.143611'
S'-149.37'
tp2725
sa(dp2726
S'Nulato'
p2727
(S'64.729444'
S'-158.074167'
tp2728
sa(dp2729
S'Rampart'
p2730
(S'65.507778'
S'-150.140833'
tp2731
sa(dp2732
S'Tanana'
p2733
(S'65.179556'
S'-152.075833'
tp2734
sa(dp2735
S'Venetie'
p2736
(S'67.008611'
S'-146.366389'
tp2737
sa(dp2738
S'Beaver'
p2739
(S'66.362222'
S'-147.406667'
tp2740
sa(dp2741
S'Central'
p2742
(S'65.573889'
S'-144.780833'
tp2743
sa(dp2744
S'Shungnak'
p2745
(S'66.888056'
S'-157.1625'
tp2746
sa(dp2747
S'Brich Creek'
p2748
(S'66.256708'
S'-145.815319'
tp2749
sa(dp2750
S'Coldfoot'
p2751
(S'67.251389'
S'-150.176111'
tp2752
sa(dp2753
S'Inyokern'
p2754
(S'35.658889'
S'-117.829444'
tp2755
sa(dp2756
S'Visalia'
p2757
(S'36.318611'
S'-119.392778'
tp2758
sa(dp2759
S'Merced'
p2760
(S'37.284722'
S'-120.513889'
tp2761
sa(dp2762
S'Goodyear'
p2763
(S'33.423725'
S'-112.374456'
tp2764
sa(dp2765
S'Park City'
p2766
(S'40.659444'
S'-111.4997222'
tp2767
sa(dp2768
S'Angoon'
p2769
(S'57.503611'
S'-134.585'
tp2770
sa(dp2771
S'Elfin Cove'
p2772
(S'58.195278'
S'-136.3475'
tp2773
sa(dp2774
S'Tenakee Springs'
p2775
(S'57.779722'
S'-135.218333'
tp2776
sa(dp2777
S'Pelican'
p2778
(S'57.955278'
S'-136.236389'
tp2779
sa(dp2780
S'Sitka'
p2781
(S'57.515'
S'-134.946111'
tp2782
sa(dp2783
S'Funter Bay'
p2784
(S'58.254444'
S'-134.897778'
tp2785
sa(dp2786
S'Excursion Inlet'
p2787
(S'58.420556'
S'-135.449167'
tp2788
sa(dp2789
S'Hoonah'
p2790
(S'58.096111'
S'-135.409722'
tp2791
sa(dp2792
S'Kake'
p2793
(S'56.961389'
S'-133.910278'
tp2794
sa(dp2795
S'Craig'
p2796
(S'55.478889'
S'-133.147778'
tp2797
sa(dp2798
S'Hollis'
p2799
(S'55.481667'
S'-132.646111'
tp2800
sa(dp2801
S'Metakatla'
p2802
(S'55.131111'
S'-131.578056'
tp2803
sa(dp2804
S'Thorne Bay'
p2805
(S'55.688056'
S'-132.536667'
tp2806
sa(dp2807
S'Hydaburg'
p2808
(S'55.206389'
S'-132.828333'
tp2809
sa(dp2810
S'Hyder'
p2811
(S'55.903333'
S'-130.006667'
tp2812
sa(dp2813
S'Point Baker'
p2814
(S'56.351944'
S'-133.6225'
tp2815
sa(dp2816
S'Port Protection'
p2817
(S'56.328889'
S'-133.61'
tp2818
sa(dp2819
S'North Whale Pass'
p2820
(S'56.116389'
S'-133.121667'
tp2821
sa(dp2822
S'Chignik Lake'
p2823
(S'56.255'
S'-158.775278'
tp2824
sa(dp2825
S'Egegik'
p2826
(S'58.185556'
S'-157.375556'
tp2827
sa(dp2828
S'Chignik Lagoon'
p2829
(S'56.311111'
S'-158.534167'
tp2830
sa(dp2831
S'Chignik'
p2832
(S'56.295556'
S'-158.401398'
tp2833
sa(dp2834
S'Perryville'
p2835
(S'55.906667'
S'-159.160833'
tp2836
sa(dp2837
S'Pilot Point'
p2838
(S'57.585393'
S'-157.571944'
tp2839
sa(dp2840
S'South Naknek'
p2841
(S'58.702222'
S'-157.0025'
tp2842
sa(dp2843
S'Akhiok'
p2844
(S'56.938611'
S'-154.1825'
tp2845
sa(dp2846
S'Karluk'
p2847
(S'57.566944'
S'-154.450278'
tp2848
sa(dp2849
S'Larsen Bay'
p2850
(S'57.535'
S'-153.976667'
tp2851
sa(dp2852
S'Old Harbor'
p2853
(S'57.218056'
S'-153.269722'
tp2854
sa(dp2855
S'Ouzinkie'
p2856
(S'57.922876'
S'-152.500511'
tp2857
sa(dp2858
S'Port Lions'
p2859
(S'57.885278'
S'-152.846111'
tp2860
sa(dp2861
S'Lazy Bay'
p2862
(S'56.899444'
S'-154.247778'
tp2863
sa(dp2864
S'Amook Bay'
p2865
(S'57.471389'
S'-153.815278'
tp2866
sa(dp2867
S'Kitoi Bay'
p2868
(S'58.190833'
S'-152.370556'
tp2869
sa(dp2870
S'Moser Bay'
p2871
(S'57.025556'
S'-154.145833'
tp2872
sa(dp2873
S'Olga Bay'
p2874
(S'57.161389'
S'-154.229722'
tp2875
sa(dp2876
S'Port Bailey'
p2877
(S'57.93'
S'-153.040556'
tp2878
sa(dp2879
S'Port Williams'
p2880
(S'58.49'
S'-152.582222'
tp2881
sa(dp2882
S'Seal Bay'
p2883
(S'58.166667'
S'-152.5'
tp2884
sa(dp2885
S'San Juan'
p2886
(S'57.730278'
S'-153.320556'
tp2887
sa(dp2888
S'West Point'
p2889
(S'57.77'
S'-153.548889'
tp2890
sa(dp2891
S'Zachar Bay'
p2892
(S'57.55'
S'-153.75'
tp2893
sa(dp2894
S'Ambler'
p2895
(S'67.106389'
S'-157.8575'
tp2896
sa(dp2897
S'Buckland'
p2898
(S'65.981667'
S'-161.149167'
tp2899
sa(dp2900
S'Kiana'
p2901
(S'66.975833'
S'-160.436667'
tp2902
sa(dp2903
S'Kobuk'
p2904
(S'66.912222'
S'-156.897222'
tp2905
sa(dp2906
S'Noorvik'
p2907
(S'66.8175'
S'-161.022222'
tp2908
sa(dp2909
S'Selawik'
p2910
(S'66.6'
S'-159.985833'
tp2911
sa(dp2912
S'Brevig Mission'
p2913
(S'65.331389'
S'-166.465833'
tp2914
sa(dp2915
S'Elim'
p2916
(S'64.615'
S'-162.270556'
tp2917
sa(dp2918
S'Golovin'
p2919
(S'64.550556'
S'-163.007222'
tp2920
sa(dp2921
S'Teller'
p2922
(S'65.240278'
S'-166.339444'
tp2923
sa(dp2924
S'Wales'
p2925
(S'65.6225'
S'-168.095'
tp2926
sa(dp2927
S'White Mountain'
p2928
(S'64.689167'
S'-163.412778'
tp2929
sa(dp2930
S'Council'
p2931
(S'64.897778'
S'-163.703333'
tp2932
sa(dp2933
S'Koyuk'
p2934
(S'64.939444'
S'-161.154167'
tp2935
sa(dp2936
S'St. Michael'
p2937
(S'63.49'
S'-162.110278'
tp2938
sa(dp2939
S'Shaktoolik'
p2940
(S'64.371111'
S'-161.223889'
tp2941
sa(dp2942
S'Stebbins'
p2943
(S'63.515833'
S'-162.278056'
tp2944
sa(dp2945
S'Tin City'
p2946
(S'65.563056'
S'-167.921667'
tp2947
sa(dp2948
S'Atka'
p2949
(S'52.220278'
S'-174.206389'
tp2950
sa(dp2951
S'Nikolski'
p2952
(S'52.941667'
S'-168.848889'
tp2953
sa(dp2954
S'Icy Bay'
p2955
(S'59.968889'
S'-141.661667'
tp2956
sa(dp2957
S'Yakataga'
p2958
(S'60.081901'
S'-142.493611'
tp2959
sa(dp2960
S'Alakanuk'
p2961
(S'62.68'
S'-164.66'
tp2962
sa(dp2963
S'Nunam Iqua'
p2964
(S'62.520556'
S'-164.847778'
tp2965
sa(dp2966
S'Kipnuk'
p2967
(S'59.933056'
S'-164.030556'
tp2968
sa(dp2969
S'False Pass'
p2970
(S'54.8475'
S'-163.410278'
tp2971
sa(dp2972
S'Nelson Lagoon'
p2973
(S'56.0075'
S'-161.160278'
tp2974
sa(dp2975
S'Cold Bay'
p2976
(S'56.006111'
S'-160.560833'
tp2977
sa(dp2978
S'Klawock'
p2979
(S'55.579167'
S'-133.076111'
tp2980
sa(dp2981
S'Quinhagak'
p2982
(S'59.755'
S'-161.845278'
tp2983
sa(dp2984
S'Kotlik'
p2985
(S'63.030556'
S'-163.532778'
tp2986
sa(dp2987
S'Koyukuk'
p2988
(S'64.875833'
S'-157.730556'
tp2989
sa(dp2990
S'Scammon Bay'
p2991
(S'61.845278'
S'-165.571389'
tp2992
sa(dp2993
S'Nondalton'
p2994
(S'59.966944'
S'-154.851667'
tp2995
sa(dp2996
S'Pedro Bay'
p2997
(S'59.782222'
S'-154.1325'
tp2998
sa(dp2999
S'Nunapitchuk'
p3000
(S'60.905833'
S'-162.439167'
tp3001
sa(dp3002
S'Kongiganak'
p3003
(S'59.960833'
S'-162.881111'
tp3004
sa(dp3005
S'Nikolai'
p3006
(S'63.010833'
S'-154.383889'
tp3007
sa(dp3008
S'Takotna'
p3009
(S'62.971944'
S'-156.082778'
tp3010
sa(dp3011
S'Pilot Station'
p3012
(S'61.934444'
S'-162.899444'
tp3013
sa(dp3014
S'Akiak'
p3015
(S'60.902778'
S'-161.230556'
tp3016
sa(dp3017
S'Tuluksak'
p3018
(S'61.096944'
S'-160.969444'
tp3019
sa(dp3020
S'Grayling'
p3021
(S'62.894444'
S'-160.065'
tp3022
sa(dp3023
S'Wainwright'
p3024
(S'70.638056'
S'-159.994722'
tp3025
sa(dp3026
S'Chenega'
p3027
(S'60.077222'
S'-147.991944'
tp3028
sa(dp3029
S'Chisana'
p3030
(S'62.071111'
S'-142.048333'
tp3031
sa(dp3032
S'Tok'
p3033
(S'63.329444'
S'-142.953611'
tp3034
sa(dp3035
S'Circle'
p3036
(S'65.827778'
S'-144.076111'
tp3037
sa(dp3038
S'Coffman Cove'
p3039
(S'56.014722'
S'-132.833889'
tp3040
sa(dp3041
S'Crooked Creek'
p3042
(S'61.867778'
S'-158.135'
tp3043
sa(dp3044
S'Red Devil'
p3045
(S'61.788056'
S'-157.350278'
tp3046
sa(dp3047
S'Sleetmute'
p3048
(S'61.700566'
S'-157.165833'
tp3049
sa(dp3050
S'Stony River'
p3051
(S'61.7875'
S'-156.591111'
tp3052
sa(dp3053
S'Healy'
p3054
(S'63.8675'
S'-148.968889'
tp3055
sa(dp3056
S'Kake'
p3057
(S'56.973056'
S'-133.945556'
tp3058
sa(dp3059
S'Klawock'
p3060
(S'55.554658'
S'-133.101693'
tp3061
sa(dp3062
S'Lake Minchumina'
p3063
(S'63.886111'
S'-152.301944'
tp3064
sa(dp3065
S'Manley Hot Springs'
p3066
(S'64.9975'
S'-150.644167'
tp3067
sa(dp3068
S'St. George'
p3069
(S'56.577222'
S'-169.663611'
tp3070
sa(dp3071
S'Tatitlek'
p3072
(S'60.8725'
S'-146.691111'
tp3073
sa(dp3074
S'Ketchikan'
p3075
(S'55.344444'
S'-131.663333'
tp3076
sa(dp3077
S'Lancaster'
p3078
(S'40.05'
S'-76.31'
tp3079
sa(dp3080
S'Ardmore'
p3081
(S'40.01'
S'-75.29'
tp3082
sa(dp3083
S'Iselin'
p3084
(S'40.568'
S'-74.3275'
tp3085
sa(dp3086
S'East St. Louis'
p3087
(S'38.5707244'
S'-90.1562211'
tp3088
sa(dp3089
S'Newport News'
p3090
(S'37.0228'
S'-76.4519'
tp3091
sa(dp3092
S'Portland'
p3093
(S'45.529'
S'-122.6768'
tp3094
sa(dp3095
S'Westport'
p3096
(S'44.1871'
S'-73.4519'
tp3097
sa(dp3098
S'Trenton'
p3099
(S'40.21889'
S'-74.75417'
tp3100
sa(dp3101
S'Philadelphia'
p3102
(S'39.9969556'
S'-75.1487722'
tp3103
sa(dp3104
S'Juneau'
p3105
(S'58.571385'
S'-134.607754'
tp3106
sa(dp3107
S'Seattle'
p3108
(S'47.615884'
S'-122.330017'
tp3109
sa(dp3110
S'Juneau'
p3111
(S'58.335451'
S'-134.414978'
tp3112
sa(dp3113
S'Skagway'
p3114
(S'59.470896'
S'-135.31723'
tp3115
sa(dp3116
S'Ketchikan '
p3117
(S'55.346327'
S'-131.644707'
tp3118
sa(dp3119
S'Martinsburg'
p3120
(S'39.2407'
S'-77.591'
tp3121
sa(dp3122
S'Rock Hill'
p3123
(S'34.9878'
S'-81.0572'
tp3124
sa(dp3125
S'Pittsburgh'
p3126
(S'40.3544'
S'-79.9302'
tp3127
sa(dp3128
S'Jacksonville'
p3129
(S'30.2187'
S'-81.8767'
tp3130
sa(dp3131
S'Atlanta'
p3132
(S'33.7791'
S'-84.5214'
tp3133
sa(dp3134
S'Four Corners'
p3135
(S'36.998976'
S'-109.045172'
tp3136
sa(dp3137
S'Ocean Isle Beach'
p3138
(S'33.9085056'
S'-78.4366722'
tp3139
sa(dp3140
S'Columbus'
p3141
(S'40.0798'
S'-83.073'
tp3142
sa(dp3143
S'Addison'
p3144
(S'32.9685594'
S'-96.8364478'
tp3145
sa(dp3146
S'Destin'
p3147
(S'30.4000611'
S'-86.4714772'
tp3148
sa(dp3149
S'Fort Jefferson - Dry Tortugas'
p3150
(S'24.61667'
S'-82.86667'
tp3151
sa(dp3152
S'Kinston'
p3153
(S'35.331389'
S'-77.608889'
tp3154
sa(dp3155
S'Kill Devil Hills'
p3156
(S'36.02'
S'-75.67'
tp3157
sa(dp3158
S'Provo'
p3159
(S'40.21805555'
S'-111.72222222'
tp3160
sa(dp3161
S'Steamboat Springs'
p3162
(S'40.51625'
S'-106.8663056'
tp3163
sa(dp3164
S'Delta'
p3165
(S'39.3806386'
S'-112.5077147'
tp3166
sa(dp3167
S'Richfield'
p3168
(S'38.7364361'
S'-112.0989444'
tp3169
sa(dp3170
S'Price'
p3171
(S'39.609722'
S'-110.75278'
tp3172
sa(dp3173
S'Los Alamos'
p3174
(S'35.8798019'
S'-106.2694153'
tp3175
sa(dp3176
S'Borrego Springs'
p3177
(S'33.2590278'
S'-116.3209722'
tp3178
sa(dp3179
S'Lake Havasu City'
p3180
(S'34.5711111'
S'-114.3582778'
tp3181
sa(dp3182
S'Winslow'
p3183
(S'35.0219167'
S'-110.7225278'
tp3184
sa(dp3185
S'Douglas'
p3186
(S'31.3426028'
S'-109.5064544'
tp3187
sa(dp3188
S'Bartow'
p3189
(S'27.9434'
S'-81.7834'
tp3190
sa(dp3191
S'Livermore'
p3192
(S'37.41362'
S'-121.49133'
tp3193
sa(dp3194
S'Mariposa'
p3195
(S'37.3039'
S'-120.0222'
tp3196
sa(dp3197
S'Liskeard'
p3198
(S'50.44708'
S'-4.46753'
tp3199
sa(dp3200
S'Ketchikan'
p3201
(S'55.778889'
S'-131.601389'
tp3202
sa(dp3203
S'Palm Springs'
p3204
(S'33.626666'
S'-116.1596667'
tp3205
sa(dp3206
S'Santa Monica'
p3207
(S'34.0158333'
S'-118.4513056'
tp3208
sa(dp3209
S'Palm Springs'
p3210
(S'33.7484375'
S'-116.2748133'
tp3211
sa(dp3212
S'Scottsdale'
p3213
(S'33.6228889'
S'-111.9105278'
tp3214
sa(dp3215
S'Olympia'
p3216
(S'46.9694044'
S'-122.9025447'
tp3217
sa(dp3218
S'Davis-Woodland-Winters'
p3219
(S'38.5793889'
S'-121.8569444'
tp3220
sa(dp3221
S'Rifle'
p3222
(S'39.5263056'
S'-107.7269444'
tp3223
sa(dp3224
S'SARATOGA'
p3225
(S'41.4448594'
S'-106.8235264'
tp3226
sa(dp3227
S'Atlanta'
p3228
(S'33.8756111'
S'-84.3019722'
tp3229
sa(dp3230
S'Bloomington'
p3231
(S'39.1460208'
S'-86.6166805'
tp3232
sa(dp3233
S'Stuart'
p3234
(S'27.1816996'
S'-80.221294'
tp3235
sa(dp3236
S'Morristown'
p3237
(S'40.79935'
S'-74.4148747'
tp3238
sa(dp3239
S'Napa'
p3240
(S'38.2131944'
S'-122.2806944'
tp3241
sa(dp3242
S'San Diego'
p3243
(S'32.5722722'
S'-116.9801611'
tp3244
sa(dp3245
S'Pahokee'
p3246
(S'26.789'
S'-80.692'
tp3247
sa(dp3248
S'Venice'
p3249
(S'27.42439'
S'-82.262364'
tp3250
sa(dp3251
S'Pahokee'
p3252
(S'26.471041'
S'-80.413591'
tp3253
sa(dp3254
S'Panama City'
p3255
(S'30.3417'
S'-85.7973'
tp3256
sa(dp3257
S'San Bernardino'
p3258
(S'34.0953521'
S'-117.2348722'
tp3259
sa(dp3260
S'San Carlos'
p3261
(S'37.511944'
S'-122.249444'
tp3262
sa(dp3263
S'Rocky Mount'
p3264
(S'35.8563'
S'-77.8919'
tp3265
sa(dp3266
S'Whittier'
p3267
(S'60.7772125'
S'-148.7215775'
tp3268
sa(dp3269
S'Soldotna'
p3270
(S'60.4749583'
S'-151.0382389'
tp3271
sa(dp3272
S'El Cajon'
p3273
(S'32.8262222'
S'-116.9724444'
tp3274
sa(dp3275
S'San Clemente Island'
p3276
(S'33.022744'
S'-118.588489'
tp3277
sa(dp3278
S'Truckee'
p3279
(S'39.3200422'
S'-120.1395628'
tp3280
sa(dp3281
S'Detroit'
p3282
(S'42.368097'
S'-83.072397'
tp3283
sa(dp3284
S'Ventura'
p3285
(S'34.27833'
S'-119.29222'
tp3286
sa(dp3287
S'Moultrie'
p3288
(S'31.0849167'
S'-83.80325'
tp3289
sa(dp3290
S'Atlanta'
p3291
(S'34.0131569'
S'-84.5970556'
tp3292
sa(dp3293
S'Oneonta'
p3294
(S'42.524722'
S'-75.064444'
tp3295
sa(dp3296
S'Dell'
p3297
(S'44.7357483'
S'-112.7200133'
tp3298
sa(dp3299
S'Livingston-Montana'
p3300
(S'45.6993889'
S'-110.4483056'
tp3301
sa(dp3302
S'Big Timber'
p3303
(S'45.8063889'
S'-109.9811111'
tp3304
sa(dp3305
S'Holland'
p3306
(S'42.7427778'
S'-86.1078333'
tp3307
sa(dp3308
S'Monument Valley'
p3309
(S'37.0167'
S'-110.201'
tp3310
sa(dp3311
S'New York'
p3312
(S'40.7545'
S'-74.0071'
tp3313
sa(dp3314
S'Lakeland'
p3315
(S'27.9889167'
S'-82.0185556'
tp3316
sa(dp3317
S'Fort Lauderdale'
p3318
(S'26.0882'
S'-80.115373'
tp3319
sa(dp3320
S'Miami'
p3321
(S'25.779701'
S'-80.177279'
tp3322
sa(dp3323
S'Los Angeles'
p3324
(S'33.747198'
S'-118.276856'
tp3325
sa(dp3326
S'Kailua Kona Hawaii'
p3327
(S'19.635393'
S'-155.998328'
tp3328
sa(dp3329
S'Nawiliwili Kauai Hawaii'
p3330
(S'21.954549'
S'-159.355981'
tp3331
sa(dp3332
S'Hilo Hawaii'
p3333
(S'19.730967'
S'-155.054094'
tp3334
sa(dp3335
S'Honolulu Oahu'
p3336
(S'21.301185'
S'-157.865671'
tp3337
sa(dp3338
S'Lahaina Maui Hawaii'
p3339
(S'20.876456'
S'-156.683235'
tp3340
sa(dp3341
S'Seattle WA'
p3342
(S'47.611241'
S'-122.350026'
tp3343
sa(dp3344
S'New York'
p3345
(S'40.639751'
S'-73.778924'
tp3346
sa(dp3347
S'Murrieta-Temecula'
p3348
(S'33.5741791'
S'-117.1284732'
tp3349
sa(dp3350
S'Anchorage Alaska'
p3351
(S'61.221749'
S'-149.890852'
tp3352
sa(dp3353
S'Seward Alaska'
p3354
(S'60.121586'
S'-149.439983'
tp3355
sa(dp3356
S'Port Clinton'
p3357
(S'41.5162703'
S'-82.8694868'
tp3358
sa(dp3359
S'Dayton'
p3360
(S'39.5889722'
S'-84.2248611'
tp3361
sa(dp3362
S'Richmond'
p3363
(S'39.7561006'
S'-84.8427175'
tp3364
sa(dp3365
S'Findley'
p3366
(S'41.0120278'
S'-83.6686111'
tp3367
sa(dp3368
S'Spearfish-South Dakota'
p3369
(S'44.4811407'
S'-103.7860053'
tp3370
sa(dp3371
S'Olive Branch'
p3372
(S'34.876944'
S'-89.783333'
tp3373
sa(dp3374
S'Broomfield-CO'
p3375
(S'39.90888888'
S'-105.11722222'
tp3376
sa(dp3377
S'Minot'
p3378
(S'48.2361'
S'-101.2987'
tp3379
sa(dp3380
S'Havre'
p3381
(S'48.55457'
S'-109.67836'
tp3382
sa(dp3383
S'Wishram'
p3384
(S'45.6576'
S'-120.9664'
tp3385
sa(dp3386
S'Salem'
p3387
(S'44.9095'
S'-123.003'
tp3388
sa(dp3389
S'Tunica'
p3390
(S'34.681'
S'-90.3467'
tp3391
sa(dp3392
S'Milwaukee'
p3393
(S'43.1103889'
S'-88.0344167'
tp3394
sa(dp3395
S'Janesville'
p3396
(S'42.62025'
S'-89.0415556'
tp3397
sa(dp3398
S'Arlington'
p3399
(S'32.6638611'
S'-97.0942778'
tp3400
sa(dp3401
S'Lawrenceville'
p3402
(S'33.9780761'
S'-83.9623772'
tp3403
sa(dp3404
S'Bowling Green'
p3405
(S'36.9645278'
S'-86.4196667'
tp3406
sa(dp3407
S'Tulsa'
p3408
(S'36.0396111'
S'-95.9846389'
tp3409
sa(dp3410
S'Emeryville'
p3411
(S'37.8405149'
S'-122.29134'
tp3412
sa(dp3413
S'Bakersfield'
p3414
(S'35.372159'
S'-119.008393'
tp3415
sa(dp3416
S'Bryce Canyon'
p3417
(S'37.706444'
S'-112.145806'
tp3418
sa(dp3419
S'Burlington'
p3420
(S'36.0485433'
S'-79.4748892'
tp3421
sa(dp3422
S'Olathe'
p3423
(S'38.8309167'
S'-94.8903056'
tp3424
sa(dp3425
S'Easton'
p3426
(S'38.8041667'
S'-76.069'
tp3427
sa(dp3428
S'Republic'
p3429
(S'48.7182058'
S'-118.6564714'
tp3430
sa(dp3431
S'Yuba City'
p3432
(S'39.0553'
S'-121.3411'
tp3433
sa(dp3434
S'Duncan'
p3435
(S'34.4713056'
S'-97.9598611'
tp3436
sa(dp3437
S'New York'
p3438
(S'40.75616'
S'-73.9906'
tp3439
sa(dp3440
S'Chinle'
p3441
(S'36.1108806'
S'-109.5754222'
tp3442
sa(dp3443
S'Uvalde'
p3444
(S'29.215429'
S'-99.748962'
tp3445
sa(dp3446
S'Lockport'
p3447
(S'41.606326'
S'-88.083003'
tp3448
sa(dp3449
S'Urbana'
p3450
(S'40.144979'
S'-88.200197'
tp3451
sa(dp3452
S'Concord'
p3453
(S'37.9896667'
S'-122.0568889'
tp3454
sa(dp3455
S'Ocean Reef Club Airport'
p3456
(S'25.325393'
S'-80.274775'
tp3457
sa(dp3458
S'Denver'
p3459
(S'39.753187'
S'-105.000093'
tp3460
sa(dp3461
S'DELETE'
p3462
(S'-1.1111'
S'-1.1111'
tp3463
sa(dp3464
S'Athens'
p3465
(S'39.2118928'
S'-82.2292554'
tp3466
sa(dp3467
S'Springfield'
p3468
(S'39.8402778'
S'-83.8401667'
tp3469
sa(dp3470
S'Miami'
p3471
(S'25.7783'
S'-80.1703'
tp3472
sa(dp3473
S'Topeka'
p3474
(S'39.068657'
S'-95.622482'
tp3475
sa(dp3476
S'Emporia'
p3477
(S'38.3321'
S'-96.1912'
tp3478
sa(dp3479
S'Uvalde'
p3480
(S'29.229405'
S'-99.823947'
tp3481
sa(dp3482
S'Null'
p3483
(S'37.609778'
S'-86.506925'
tp3484
sa(dp3485
S'Smyrna'
p3486
(S'36.009'
S'-86.5201'
tp3487
sa(dp3488
S'Sewanee'
p3489
(S'35.2051'
S'-85.8981'
tp3490
sa(dp3491
S'DALLAS'
p3492
(S'33.1779444'
S'-96.5905278'
tp3493
sa(dp3494
S'Chicago-Wheeling'
p3495
(S'42.1142897'
S'-87.9015376'
tp3496
sa(dp3497
S'Kelso'
p3498
(S'46.118'
S'-122.898389'
tp3499
sa(dp3500
S'Put-in-Bay'
p3501
(S'41.3521'
S'-82.497'
tp3502
sa(dp3503
S'Glenwood Springs'
p3504
(S'39.548'
S'-107.3233'
tp3505
sa(dp3506
S'Grand Junction'
p3507
(S'39.0646'
S'-108.5705'
tp3508
sa(dp3509
S'Reno'
p3510
(S'39.5287'
S'-119.8116'
tp3511
sa(dp3512
S'Sacramento'
p3513
(S'38.584791'
S'-121.500517'
tp3514
sa(dp3515
S'Port Townsend'
p3516
(S'48.0314'
S'-122.4838'
tp3517
sa(dp3518
S'Lynden'
p3519
(S'48.9558961'
S'-122.4581183'
tp3520
sa(dp3521
S'Port Townsend'
p3522
(S'48.0538086'
S'-122.8106436'
tp3523
sa(dp3524
S'Boston'
p3525
(S'42.35'
S'-71.0558'
tp3526
sa(dp3527
S'Richmond'
p3528
(S'37.5343'
S'-77.42945'
tp3529
sa(dp3530
S'Wilmington'
p3531
(S'39.42792'
S'-83.792118'
tp3532
sa(dp3533
S'Tucson'
p3534
(S'32.409556'
S'-111.218388'
tp3535
sa(dp3536
S'Casa Grande'
p3537
(S'32.954889'
S'-111.766832'
tp3538
sa(dp3539
S'Mobile'
p3540
(S'33.111944'
S'-112.269166'
tp3541
sa(dp3542
S'Buckeye'
p3543
(S'33.420417'
S'-112.68618'
tp3544
sa(dp3545
S'Gila Bend'
p3546
(S'32.960169'
S'-112.673636'
tp3547
sa(dp3548
S'Athens'
p3549
(S'35.39919'
S'-84.56177'
tp3550
sa(dp3551
S'Sterling'
p3552
(S'40.6153136'
S'-103.2648454'
tp3553
sa(dp3554
S'Rawlins'
p3555
(S'41.8055975'
S'-107.19994'
tp3556
sa(dp3557
S'Caldwell'
p3558
(S'40.8752222'
S'-74.2813611'
tp3559
sa(dp3560
S'Kaiser Lake Ozark'
p3561
(S'38.096035'
S'-92.5494875'
tp3562
sa(dp3563
S'Big Bear'
p3564
(S'34.2637778'
S'-116.8560278'
tp3565
sa(dp3566
S'Los Angeles'
p3567
(S'34.056111'
S'-118.234167'
tp3568
sa(dp3569
S'Thomasville'
p3570
(S'30.9017921'
S'-83.8811285'
tp3571
sa(dp3572
S'Henderson'
p3573
(S'35.972778'
S'-115.134444'
tp3574
sa(dp3575
S'Tifton'
p3576
(S'31.4289814'
S'-83.488545'
tp3577
sa(dp3578
S'Savannah'
p3579
(S'32.08558'
S'-81.097559'
tp3580
sa(dp3581
S'CHARLESTON'
p3582
(S'32.781081'
S'-79.92364'
tp3583
sa(dp3584
S'NEW YORK'
p3585
(S'40.767681'
S'-73.999107'
tp3586
sa(dp3587
S'Phoenix '
p3588
(S'33.4117'
S'112.457'
tp3589
sa(dp3590
S'Farmingdale'
p3591
(S'40.7288'
S'-73.4134'
tp3592
sa(dp3593
S'Seattle'
p3594
(S'47.5985'
S'-122.3299'
tp3595
sa(dp3596
S'Hondo'
p3597
(S'29.3591'
S'-99.1775'
tp3598
sa(dp3599
S'Milwaukee'
p3600
(S'42.940556'
S'-87.924722'
tp3601
sa(dp3602
S'Springfield'
p3603
(S'39.8023'
S'-89.6515'
tp3604
sa(dp3605
S'St. Louis'
p3606
(S'38.6241'
S'-90.2056'
tp3607
sa(dp3608
S'Camarillo'
p3609
(S'34.2164'
S'-119.0335'
tp3610
sa(dp3611
S'Seattle'
p3612
(S'47.6005'
S'-122.3388'
tp3613
sa(dp3614
S'Bremerton'
p3615
(S'47.5619'
S'-122.625'
tp3616
sa(dp3617
S'McKinley Park'
p3618
(S'63.732757'
S'-148.91129'
tp3619
sa(dp3620
S'Anchorage'
p3621
(S'61.1866382'
S'-149.9653918'
tp3622
sa(dp3623
S'Prospect Creek'
p3624
(S'66.814167'
S'-150.643611'
tp3625
sa(dp3626
S'Hudson NY'
p3627
(S'42.2913'
S'-73.7103'
tp3628
sa(dp3629
S'Wheeling'
p3630
(S'40.175'
S'-80.6463'
tp3631
sa(dp3632
S'Fitzgerald'
p3633
(S'31.6839046'
S'-83.2709036'
tp3634
sa(dp3635
S'Perry'
p3636
(S'30.0692778'
S'-83.5805833'
tp3637
sa(dp3638
S'Cairo'
p3639
(S'30.8879767'
S'-84.1547353'
tp3640
sa(dp3641
S'Rockport'
p3642
(S'28.0862222'
S'-97.0436944'
tp3643
sa(dp3644
S'Cordele'
p3645
(S'31.9888333'
S'-83.7739167'
tp3646
sa(dp3647
S'Ormond Beach'
p3648
(S'29.1804'
S'-81.06497'
tp3649
sa(dp3650
S'Troutdale'
p3651
(S'45.54937'
S'-122.401253'
tp3652
sa(dp3653
S'Hillsboro'
p3654
(S'45.540394'
S'-122.949825'
tp3655
sa(dp3656
S'New York'
p3657
(S'40.7126'
S'-73.9996'
tp3658
sa(dp3659
S'Live Oak'
p3660
(S'30.300125'
S'-83.0246944'
tp3661
sa(dp3662
S'Bend'
p3663
(S'44.0945556'
S'-121.2002222'
tp3664
sa(dp3665
S'Christmas Valley'
p3666
(S'43.2365314'
S'-120.6660967'
tp3667
sa(dp3668
S'Burns'
p3669
(S'43.5919167'
S'-118.95554444'
tp3670
sa(dp3671
S'Prineville'
p3672
(S'44.2869939'
S'-120.9038328'
tp3673
sa(dp3674
S'Red Bluff'
p3675
(S'40.1506944'
S'-122.2523056'
tp3676
sa(dp3677
S'Novato'
p3678
(S'38.1436111'
S'-122.5561'
tp3679
sa(dp3680
S'Lakeview'
p3681
(S'42.1611111'
S'-120.3990833'
tp3682
sa(dp3683
S'Tillamook'
p3684
(S'45.4182419'
S'-123.8143839'
tp3685
sa(dp3686
S'Ontario'
p3687
(S'44.0193611'
S'-117.0130278'
tp3688
sa(dp3689
S'The Dalles'
p3690
(S'45.6185556'
S'-121.1673333'
tp3691
sa(dp3692
S'Gaithersburg'
p3693
(S'39.1006'
S'-77.09576'
tp3694
sa(dp3695
S'Cincinnati'
p3696
(S'39.109961'
S'-84.537074'
tp3697
sa(dp3698
S'Cleveland'
p3699
(S'41.50225'
S'-81.62233'
tp3700
sa(dp3701
S'Charelvoix'
p3702
(S'45.3047778'
S'-85.2753333'
tp3703
sa(dp3704
S'Quincy'
p3705
(S'30.5978708'
S'-84.557425'
tp3706
sa(dp3707
S'Roche Harbor'
p3708
(S'48.608056'
S'-123.159722'
tp3709
sa(dp3710
S'Blakely Island'
p3711
(S'48.56025'
S'-122.80243'
tp3712
sa(dp3713
S'Rosario'
p3714
(S'48.645556'
S'-122.868056'
tp3715
sa(dp3716
S'Westsound'
p3717
(S'48.617778'
S'-122.952778'
tp3718
sa(dp3719
S'Friday Harbor'
p3720
(S'48.537222'
S'-123.009722'
tp3721
sa(dp3722
S'Death Valley National Park'
p3723
(S'36.273'
S'-116.515'
tp3724
sa(dp3725
S'Flagler'
p3726
(S'29.2821'
S'-81.1212'
tp3727
sa(dp3728
S'Morrisville'
p3729
(S'44.535'
S'-72.614'
tp3730
sa(dp3731
S'Dallas'
p3732
(S'32.680833'
S'-96.868333'
tp3733
sa(dp3734
S'Beaver Island'
p3735
(S'45.721111'
S'-85.520278'
tp3736
sa(dp3737
S'Washington County'
p3738
(S'41.349722'
S'-71.803333'
tp3739
sa(dp3740
S'Block Island'
p3741
(S'41.168056'
S'-71.577778'
tp3742
sa(dp3743
S'Atmautluak'
p3744
(S'60.866667'
S'-162.273056'
tp3745
sa(dp3746
S'Atmautluak'
p3747
(S'60.866667'
S'-162.273056'
tp3748
sa(dp3749
S'Atmautluak'
p3750
(S'60.866667'
S'-162.273056'
tp3751
sa(dp3752
S'Nightmute'
p3753
(S'60.471111'
S'-164.700833'
tp3754
sa(dp3755
S'Toksook Bay'
p3756
(S'60.541389'
S'-165.087222'
tp3757
sa(dp3758
S'Tununak'
p3759
(S'60.575556'
S'-165.271667'
tp3760
sa(dp3761
S'Goodnews Bay'
p3762
(S'59.1175'
S'-161.5775'
tp3763
sa(dp3764
S'Newtok'
p3765
(S'60.939167'
S'-164.641111'
tp3766
sa(dp3767
S'Bainbridge'
p3768
(S'30.9715981'
S'-84.6369278'
tp3769
sa(dp3770
S'Silver Springs'
p3771
(S'39.4030278'
S'-119.2511944'
tp3772
sa(dp3773
S'Los Angeles'
p3774
(S'34.2593253'
S'-118.4134331'
tp3775
sa(dp3776
S'Madera'
p3777
(S'36.9886111'
S'-120.1124444'
tp3778
sa(dp3779
S'Mountain Home'
p3780
(S'43.1316111'
S'-115.7305671'
tp3781
sa(dp3782
S'Jefferson'
p3783
(S'34.1758638'
S'-83.5615972'
tp3784
sa(dp3785
S'Apalachicola'
p3786
(S'29.7276066'
S'-85.0274416'
tp3787
sa(dp3788
S'St. Augustine'
p3789
(S'29.95925'
S'-81.3397222'
tp3790
sa(dp3791
S'Douglas'
p3792
(S'31.4767385'
S'-82.8605664'
tp3793
sa(dp3794
S'Fort Pierce'
p3795
(S'27.497472'
S'-80.372638'
tp3796
sa(dp3797
S'Alexandria'
p3798
(S'38.806346'
S'-77.0621'
tp3799
sa(dp3800
S'Taunton'
p3801
(S'41.8744017'
S'-71.0166453'
tp3802
sa(dp3803
S'Plymouth'
p3804
(S'41.9090278'
S'-70.7287778'
tp3805
sa(dp3806
S'North Kingstown'
p3807
(S'41.5971389'
S'-71.4121389'
tp3808
sa(dp3809
S'Mansfield'
p3810
(S'42.0001331'
S'-71.1967714'
tp3811
sa(dp3812
S'Norwood'
p3813
(S'42.1905278'
S'-71.1729444'
tp3814
sa(dp3815
S'Westfield'
p3816
(S'42.1579472'
S'-72.715875'
tp3817
sa(dp3818
S'Willimantic'
p3819
(S'41.7440278'
S'-72.1802222'
tp3820
sa(dp3821
S'Montgomery'
p3822
(S'41.5099884'
S'-74.2646444'
tp3823
sa(dp3824
S'Harrisburg'
p3825
(S'40.2171389'
S'-76.8513611'
tp3826
sa(dp3827
S'Marshfield'
p3828
(S'42.09825'
S'-70.6721389'
tp3829
sa(dp3830
S'Danbury'
p3831
(S'41.3715353'
S'-73.4821906'
tp3832
sa(dp3833
S'Nashua'
p3834
(S'42.78175'
S'-71.5147778'
tp3835
sa(dp3836
S'Lawrence'
p3837
(S'42.7171944'
S'-71.1234167'
tp3838
sa(dp3839
S'Oxford'
p3840
(S'41.4785556'
S'-73.13525'
tp3841
sa(dp3842
S'Fitchburg'
p3843
(S'42.5541111'
S'-71.7589722'
tp3844
sa(dp3845
S'Villa Rica'
p3846
(S'33.7565556'
S'-84.8850625'
tp3847
sa(dp3848
S'Cartersville'
p3849
(S'34.1231475'
S'-84.8487067'
tp3850
sa(dp3851
S'Centre'
p3852
(S'34.0899167'
S'-85.6100833'
tp3853
sa(dp3854
S'Rome'
p3855
(S'34.3507778'
S'-85.1586667'
tp3856
sa(dp3857
S'Gadsden'
p3858
(S'33.9726489'
S'-86.0890834'
tp3859
sa(dp3860
S'Knoxville'
p3861
(S'35.9638333'
S'-83.8736667'
tp3862
sa(dp3863
S'Winder'
p3864
(S'33.9828611'
S'-83.6674167'
tp3865
sa(dp3866
S'Sylvania'
p3867
(S'32.6452778'
S'-81.5971111'
tp3868
sa(dp3869
S'Dalton'
p3870
(S'34.7229444'
S'-84.87025'
tp3871
sa(dp3872
S'Carrollton'
p3873
(S'33.6316964'
S'-85.1522641'
tp3874
sa(dp3875
S'Fort Payne'
p3876
(S'34.4736944'
S'-85.7213889'
tp3877
sa(dp3878
S'LaGrange'
p3879
(S'33.0088611'
S'-85.0726111'
tp3880
sa(dp3881
S'Milledgeville'
p3882
(S'33.154225'
S'-83.2414139'
tp3883
sa(dp3884
S'Cedartown'
p3885
(S'34.0186944'
S'-85.1464722'
tp3886
sa(dp3887
S'Pine Mountain'
p3888
(S'32.8406944'
S'-84.8824444'
tp3889
sa(dp3890
S'Atlanta'
p3891
(S'33.35725'
S'-84.5718333'
tp3892
sa(dp3893
S'Covington'
p3894
(S'33.6323083'
S'-83.8474472'
tp3895
sa(dp3896
S'Gainesville'
p3897
(S'34.272627'
S'-83.8302233'
tp3898
sa(dp3899
S'Canton'
p3900
(S'34.3122175'
S'-84.4221556'
tp3901
sa(dp3902
S'DeFuniak Springs'
p3903
(S'30.7311111'
S'-86.1537778'
tp3904
sa(dp3905
S'LaFayette'
p3906
(S'34.6884792'
S'-85.2903319'
tp3907
sa(dp3908
S'New Philadelpha'
p3909
(S'40.4701667'
S'-81.4199444'
tp3910
sa(dp3911
S'Darlington'
p3912
(S'34.4493845'
S'-79.8900608'
tp3913
sa(dp3914
S'Hilton Head Island'
p3915
(S'32.2243611'
S'-80.6974722'
tp3916
sa(dp3917
S'Ellijay'
p3918
(S'34.6282222'
S'-84.5265833'
tp3919
sa(dp3920
S'Elizabethton'
p3921
(S'36.3712222'
S'-82.1734167'
tp3922
sa(dp3923
S'Tuskegee'
p3924
(S'32.4605722'
S'-85.6800278'
tp3925
sa(dp3926
S'Augusta'
p3927
(S'33.4665028'
S'-82.0393808'
tp3928
sa(dp3929
S'Morganton'
p3930
(S'35.8202336'
S'-81.6115119'
tp3931
sa(dp3932
S'Pikeville'
p3933
(S'37.5617639'
S'-82.5663889'
tp3934
sa(dp3935
S'Locust Grove'
p3936
(S'33.3656703'
S'-84.1651964'
tp3937
sa(dp3938
S'Toccoa'
p3939
(S'34.5928117'
S'-83.2963717'
tp3940
sa(dp3941
S'Tampa'
p3942
(S'28.0139772'
S'-82.3452778'
tp3943
sa(dp3944
S'Fort Worth'
p3945
(S'32.987778'
S'-97.318889'
tp3946
sa(dp3947
S'East Troy'
p3948
(S'42.7971667'
S'-88.3726111'
tp3949
sa(dp3950
S'San Diego'
p3951
(S'32.4759'
S'117.759'
tp3952
sa(dp3953
S'Lawrence'
p3954
(S'39.009167'
S'-95.2175'
tp3955
sa(dp3956
S'Wellington'
p3957
(S'37.39411'
S'-97.423225'
tp3958
sa(dp3959
S'Griffin'
p3960
(S'33.2269722'
S'-84.2749444'
tp3961
sa(dp3962
S'Pompano Beach'
p3963
(S'26.2471389'
S'-80.1110556'
tp3964
sa(dp3965
S'Washington DC'
p3966
(S'38.90339'
S'-77.00583'
tp3967
sa(dp3968
S'Alabaster'
p3969
(S'33.1777778'
S'-86.7832222'
tp3970
sa(dp3971
S'Carefree'
p3972
(S'33.8180947'
S'-111.8979242'
tp3973
sa(dp3974
S'Indianapolis'
p3975
(S'39.935278'
S'-86.045'
tp3976
sa(dp3977
S'London'
p3978
(S'37.0868889'
S'-84.0773889'
tp3979
sa(dp3980
S'Baltimore'
p3981
(S'39.2837181'
S'-76.621634'
tp3982
sa(dp3983
S'Fredericksburg'
p3984
(S'38.298416'
S'-77.456875'
tp3985
sa(dp3986
S'Buffalo'
p3987
(S'42.883512'
S'-78.87205'
tp3988
sa(dp3989
S'Seattle'
p3990
(S'47.5985'
S'-122.3299'
tp3991
sa(dp3992
S'Palatka'
p3993
(S'29.649178'
S'-81.640456'
tp3994
sa(dp3995
S'Racine'
p3996
(S'42.7605'
S'-87.8152'
tp3997
sa(dp3998
S'Redlands'
p3999
(S'34.08525'
S'-117.146388'
tp4000
sa(dp4001
S'Chemehuevi Valley'
p4002
(S'34.528889'
S'-114.431971'
tp4003
sa(dp4004
S'Riverside'
p4005
(S'33.988778'
S'-117.409971'
tp4006
sa(dp4007
S'Tacoma'
p4008
(S'47.267944'
S'-122.57811'
tp4009
sa(dp4010
S'Tampa'
p4011
(S'28.221278'
S'-82.374555'
tp4012
sa(dp4013
S'COOKSON'
p4014
(S'35.705541'
S'-94.933605'
tp4015
sa(dp4016
S'Gulf Shores'
p4017
(S'30.2896389'
S'-87.6717778'
tp4018
sa(dp4019
S'Annapolis'
p4020
(S'38.972944'
S'-76.501158'
tp4021
sa(dp4022
S'Hazleton'
p4023
(S'40.989167'
S'-76.0025'
tp4024
sa(dp4025
S'Cumberland'
p4026
(S'39.615278'
S'-78.760556'
tp4027
sa(dp4028
S'Key West'
p4029
(S'24.6487544'
S'-81.5798083'
tp4030
sa(dp4031
S'Lone Rock'
p4032
(S'43.211667'
S'-90.181667'
tp4033
sa(dp4034
S'Phillips'
p4035
(S'45.705'
S'-90.403056'
tp4036
sa(dp4037
S'Monroe'
p4038
(S'42.616389'
S'-89.591944'
tp4039
sa(dp4040
S'Joliet'
p4041
(S'41.517778'
S'-88.175556'
tp4042
sa(dp4043
S'Peru'
p4044
(S'41.351944'
S'-89.153056'
tp4045
sa(dp4046
S'Jackson'
p4047
(S'42.260556'
S'-84.460556'
tp4048
sa(dp4049
S'Connellsville'
p4050
(S'39.959167'
S'-79.657222'
tp4051
sa(dp4052
S'Bedford'
p4053
(S'40.086111'
S'-78.513333'
tp4054
sa(dp4055
S'Philadelphia'
p4056
(S'40.1375'
S'-75.265'
tp4057
sa(dp4058
S'Okeechobee'
p4059
(S'27.265833'
S'-80.851111'
tp4060
sa(dp4061
S'Sebring'
p4062
(S'27.456389'
S'-81.342222'
tp4063
sa(dp4064
S'Avon Park'
p4065
(S'27.591389'
S'-81.528889'
tp4066
sa(dp4067
S'Winter Haven'
p4068
(S'28.062778'
S'-81.753333'
tp4069
sa(dp4070
S'Zephyrhills'
p4071
(S'28.228056'
S'-82.155833'
tp4072
sa(dp4073
S'Ocala'
p4074
(S'29.1725'
S'-82.224167'
tp4075
sa(dp4076
S'Jesup'
p4077
(S'31.553889'
S'-81.8825'
tp4078
sa(dp4079
S'Madison'
p4080
(S'33.612125'
S'-83.4604444'
tp4081
sa(dp4082
S'Newnan'
p4083
(S'33.3115656'
S'-84.7697554'
tp4084
sa(dp4085
S'Thomson'
p4086
(S'33.5297315'
S'-82.5169509'
tp4087
sa(dp4088
S'Aiken'
p4089
(S'33.6493889'
S'-81.6850278'
tp4090
sa(dp4091
S'Camden'
p4092
(S'34.2835833'
S'-80.5648611'
tp4093
sa(dp4094
S'Lumberton'
p4095
(S'34.6098056'
S'-79.0595556'
tp4096
sa(dp4097
S'Ridgeland'
p4098
(S'32.4934167'
S'-80.99175'
tp4099
sa(dp4100
S'Pinehurst-Southern Pines'
p4101
(S'35.2376111'
S'-79.3887958'
tp4102
sa(dp4103
S'Rockingham'
p4104
(S'34.8913056'
S'-79.7596111'
tp4105
sa(dp4106
S'Bamberg'
p4107
(S'33.3045278'
S'-81.1084167'
tp4108
sa(dp4109
S'Richland Center'
p4110
(S'43.2833575'
S'-90.2982819'
tp4111
sa(dp4112
S'Viroqua'
p4113
(S'43.5793603'
S'-90.8964742'
tp4114
sa(dp4115
S'Baraboo'
p4116
(S'43.5217843'
S'-89.7709266'
tp4117
sa(dp4118
S'Apple River'
p4119
(S'42.4664444'
S'-90.1693889'
tp4120
sa(dp4121
S'Statesville'
p4122
(S'35.7649958'
S'-80.9538958'
tp4123
sa(dp4124
S'Sturtevant'
p4125
(S'42.70325'
S'-87.9589722'
tp4126
sa(dp4127
S'Burlington'
p4128
(S'42.6907171'
S'-88.3046825'
tp4129
sa(dp4130
S'East Stroudsburg'
p4131
(S'41.0358717'
S'-75.1606789'
tp4132
sa(dp4133
S'Sterling'
p4134
(S'41.3473569'
S'-75.4158972'
tp4135
sa(dp4136
S'Middletown'
p4137
(S'41.431912'
S'-74.3915611'
tp4138
sa(dp4139
S'Lock Haven'
p4140
(S'41.1357778'
S'-77.4223056'
tp4141
sa(dp4142
S'Grove City'
p4143
(S'41.1460278'
S'-80.16775'
tp4144
sa(dp4145
S'Youngstown'
p4146
(S'41.1304722'
S'-80.6195833'
tp4147
sa(dp4148
S'Wadsworth'
p4149
(S'41.0031572'
S'-81.7564401'
tp4150
sa(dp4151
S'Ashland'
p4152
(S'40.9029722'
S'-82.2556389'
tp4153
sa(dp4154
S'Monroeville'
p4155
(S'40.4526389'
S'-79.7749167'
tp4156
sa(dp4157
S'Zelienople'
p4158
(S'40.8019722'
S'-80.1608611'
tp4159
sa(dp4160
S'Somerset'
p4161
(S'40.0388708'
S'-79.0149951'
tp4162
sa(dp4163
S'Youngstown'
p4164
(S'40.9617953'
S'-80.6773264'
tp4165
sa(dp4166
S'Braceville'
p4167
(S'41.2111675'
S'-80.9692572'
tp4168
sa(dp4169
S'Lorain-Elyria'
p4170
(S'41.3442778'
S'-82.1776389'
tp4171
sa(dp4172
S'Geneva'
p4173
(S'41.7778322'
S'-80.9039797'
tp4174
sa(dp4175
S'Cleveland'
p4176
(S'41.5175'
S'-81.683333'
tp4177
sa(dp4178
S'Dunkirk'
p4179
(S'42.4933353'
S'-79.2720417'
tp4180
sa(dp4181
S'Hamburg'
p4182
(S'42.7008925'
S'-78.9147569'
tp4183
sa(dp4184
S'Trenton'
p4185
(S'40.2139444'
S'-74.6017778'
tp4186
sa(dp4187
S'Mount Holly'
p4188
(S'39.9428889'
S'-74.84575'
tp4189
sa(dp4190
S'Pedricktown'
p4191
(S'39.7355633'
S'-75.3977211'
tp4192
sa(dp4193
S'Linden'
p4194
(S'40.6174472'
S'-74.2445942'
tp4195
sa(dp4196
S'Morgantown'
p4197
(S'40.1570414'
S'-75.8704892'
tp4198
sa(dp4199
S'Churchville'
p4200
(S'39.5668378'
S'-76.2024028'
tp4201
sa(dp4202
S'Angola'
p4203
(S'41.6396983'
S'-85.0834933'
tp4204
sa(dp4205
S'Plymouth'
p4206
(S'41.3651307'
S'-86.3002574'
tp4207
sa(dp4208
S'Warsaw'
p4209
(S'41.2746944'
S'-85.8400556'
tp4210
sa(dp4211
S'Van Wert'
p4212
(S'40.8638295'
S'-84.606358'
tp4213
sa(dp4214
S'Bucyrus'
p4215
(S'40.7815556'
S'-82.9748056'
tp4216
sa(dp4217
S'Lake Wales'
p4218
(S'27.8938056'
S'-81.6203889'
tp4219
sa(dp4220
S'Marshall'
p4221
(S'42.2511932'
S'-84.9554443'
tp4222
sa(dp4223
S'Batavia'
p4224
(S'43.03175'
S'-78.1696667'
tp4225
sa(dp4226
S'Seneca Falls'
p4227
(S'42.8835647'
S'-76.7812318'
tp4228
sa(dp4229
S'Stormville'
p4230
(S'41.5769708'
S'-73.7323514'
tp4231
sa(dp4232
S'Plainville'
p4233
(S'41.6893333'
S'-72.8646944'
tp4234
sa(dp4235
S'Bryan'
p4236
(S'41.4673056'
S'-84.5067778'
tp4237
sa(dp4238
S'Clearwater'
p4239
(S'27.9764722'
S'-82.7586667'
tp4240
sa(dp4241
S'Lakeland'
p4242
(S'27.9333581'
S'-82.0439739'
tp4243
sa(dp4244
S'New York'
p4245
(S'40.714167'
S'-74.005833'
tp4246
sa(dp4247
S'Chicago'
p4248
(S'41.883611'
S'-87.631667'
tp4249
sa(dp4250
S'Chicago'
p4251
(S'41.860278'
S'-87.609722'
tp4252
sa(dp4253
S'Washington'
p4254
(S'38.889444'
S'-77.035278'
tp4255
sa(dp4256
S'Jasper'
p4257
(S'34.4534722'
S'-84.4572222'
tp4258
sa(dp4259
S'North Myrtle Beach'
p4260
(S'33.81175'
S'-78.7239444'
tp4261
sa(dp4262
S'Lansing'
p4263
(S'41.5349167'
S'-87.5295278'
tp4264
sa(dp4265
S'Tomah'
p4266
(S'43.9762222'
S'-90.4806111'
tp4267
sa(dp4268
S'Ramona'
p4269
(S'33.0391667'
S'-116.91525'
tp4270
sa(dp4271
S'Coldwater'
p4272
(S'41.9335691'
S'-85.0522935'
tp4273
sa(dp4274
S'Wilkes-Barre'
p4275
(S'41.2973074'
S'-75.8522405'
tp4276
sa(dp4277
S'Willoughby'
p4278
(S'41.6840278'
S'-81.38975'
tp4279
sa(dp4280
S'Frankfort'
p4281
(S'38.1819722'
S'-84.9061389'
tp4282
sa(dp4283
S'Lewiston'
p4284
(S'44.0484728'
S'-70.2835075'
tp4285
sa(dp4286
S'Florence'
p4287
(S'43.9828168'
S'-124.1113687'
tp4288
sa(dp4289
S'Copperhead'
p4290
(S'35.0158056'
S'-84.3468333'
tp4291
sa(dp4292
S'Glenview'
p4293
(S'42.090556'
S'-87.8225'
tp4294
sa(dp4295
S'Tomah'
p4296
(S'43.975278'
S'-90.483333'
tp4297
sa(dp4298
S'Marco Island Airport'
p4299
(S'25.9950278'
S'-81.6725278'
tp4300
sa(dp4301
S'Drummond Island'
p4302
(S'46.0093114'
S'-83.7439342'
tp4303
sa(dp4304
S'Lewiston'
p4305
(S'44.8065278'
S'-84.2761944'
tp4306
sa(dp4307
S'Gladwin'
p4308
(S'43.9705893'
S'-84.47502'
tp4309
sa(dp4310
S'Lowell'
p4311
(S'42.95392'
S'-85.3439058'
tp4312
sa(dp4313
S'South Haven'
p4314
(S'42.3511944'
S'-86.2556389'
tp4315
sa(dp4316
S'Schaumburg'
p4317
(S'41.9893408'
S'-88.1012428'
tp4318
sa(dp4319
S'Marshfield'
p4320
(S'44.6368797'
S'-90.1893267'
tp4321
sa(dp4322
S'Wisconsin Rapids'
p4323
(S'44.3606456'
S'-89.8381412'
tp4324
sa(dp4325
S'Clinton'
p4326
(S'41.83075'
S'-90.3289722'
tp4327
sa(dp4328
S'Beverly'
p4329
(S'42.584141'
S'-70.9161444'
tp4330
sa(dp4331
S'Oakdale'
p4332
(S'37.7563333'
S'-120.8001944'
tp4333
sa(dp4334
S'Poplar Bluff'
p4335
(S'36.77394444'
S'-90.3248611'
tp4336
sa(dp4337
S'Somerville'
p4338
(S'40.6259908'
S'-74.6702433'
tp4339
sa(dp4340
S'Eastport'
p4341
(S'44.9101111'
S'-67.0126944'
tp4342
sa(dp4343
S'Keokuk'
p4344
(S'40.4599078'
S'-91.4285011'
tp4345
sa(dp4346
S'Swans Island'
p4347
(S'44.1653889'
S'-68.4281667'
tp4348
sa(dp4349
S'St. Paul'
p4350
(S'44.9346225'
S'-93.0603424'
tp4351
sa(dp4352
S'Bagdad'
p4353
(S'34.5958528'
S'-113.170195'
tp4354
sa(dp4355
S'Oconomowoc'
p4356
(S'43.1388947'
S'-88.4723206'
tp4357
sa(dp4358
S'Gualala'
p4359
(S'38.8016111'
S'-123.5306389'
tp4360
sa(dp4361
S'Kent'
p4362
(S'41.1513889'
S'-81.4151111'
tp4363
sa(dp4364
S'Hamilton'
p4365
(S'39.36375'
S'-84.5219444'
tp4366
sa(dp4367
S'Atlantic City NJ'
p4368
(S'39.3665'
S'-74.442'
tp4369
sa(dp4370
S'Springfield MA'
p4371
(S'42.106'
S'-72.593054'
tp4372
sa(dp4373
S'Amherst MA'
p4374
(S'42.375'
S'-72.511389'
tp4375
sa(dp4376
S'Cape May NJ'
p4377
(S'38.9696286'
S'-74.960918'
tp4378
sa(dp4379
S'Lewes DE'
p4380
(S'38.781655'
S'-75.119534'
tp4381
sa(dp4382
S'Bar Harbor ME'
p4383
(S'44.39917'
S'-68.225'
tp4384
sa(dp4385
S'St. Ignace MI'
p4386
(S'45.866405'
S'-84.720254'
tp4387
sa(dp4388
S'Mackinac Island MI'
p4389
(S'45.848801'
S'-84.615927'
tp4390
sa(dp4391
S'Fond du Lac'
p4392
(S'43.7711667'
S'-88.4884167'
tp4393
sa(dp4394
S'Waupaca'
p4395
(S'44.33325'
S'-89.0197778'
tp4396
sa(dp4397
S'Stevens Point'
p4398
(S'44.5451356'
S'-89.5302844'
tp4399
sa(dp4400
S'Newberry'
p4401
(S'46.311199'
S'-85.457298'
tp4402
sa(dp4403
S'Forest Lake'
p4404
(S'45.2477456'
S'-92.9943853'
tp4405
sa(dp4406
S'Galion'
p4407
(S'40.7533889'
S'-82.7238056'
tp4408
sa(dp4409
S'Clarksville'
p4410
(S'36.621944'
S'-87.415'
tp4411
sa(dp4412
S'Lompoc'
p4413
(S'34.6656'
S'-120.4675'
tp4414
sa(dp4415
S'Coatesville'
p4416
(S'39.9789'
S'-75.8654'
tp4417
sa(dp4418
S'Lake Placid'
p4419
(S'44.264444'
S'-73.961944'
tp4420
sa(dp4421
S'Long Lake'
p4422
(S'43.9750617'
S'-74.42044'
tp4423
sa(dp4424
S'Wishram'
p4425
(S'45.6576'
S'-120.9664'
tp4426
sa(dp4427
S'Lima'
p4428
(S'40.707478'
S'-84.0270781'
tp4429
sa(dp4430
S'Brunswick'
p4431
(S'31.1519722'
S'-81.3910556'
tp4432
sa(dp4433
S'Beaver Falls'
p4434
(S'40.7724722'
S'-80.3914444'
tp4435
sa(dp4436
S'Winterhaven'
p4437
(S'28.0575'
S'-81.7628056'
tp4438
sa(dp4439
S'Georgetown'
p4440
(S'33.3114018'
S'-79.3203139'
tp4441
sa(dp4442
S'Cleveland'
p4443
(S'35.2199994'
S'-84.832369'
tp4444
sa(dp4445
S'Dayton'
p4446
(S'35.48625'
S'-84.9310833'
tp4447
sa(dp4448
S'Steubenville'
p4449
(S'40.3602179'
S'-80.7008742'
tp4450
sa(dp4451
S'Renton'
p4452
(S'47.4931389'
S'-122.21575'
tp4453
sa(dp4454
S'La Verne'
p4455
(S'34.0916667'
S'-117.7817778'
tp4456
sa(dp4457
S'Jekyll Island'
p4458
(S'31.0744722'
S'-81.4277778'
tp4459
sa(dp4460
S'Cedar Key'
p4461
(S'29.1342222'
S'-83.0504722'
tp4462
sa(dp4463
S'Cross City'
p4464
(S'29.6355278'
S'-83.10475'
tp4465
sa(dp4466
S'Clemson'
p4467
(S'34.6722222'
S'-82.8858889'
tp4468
sa(dp4469
S'Heber'
p4470
(S'40.4818056'
S'-111.4288056'
tp4471
sa(dp4472
S'Wichita'
p4473
(S'37.6939167'
S'-97.2149167'
tp4474
sa(dp4475
S'Canton'
p4476
(S'34.3122175'
S'-84.4221556'
tp4477
sa(dp4478
S'Fernandina Beach'
p4479
(S'30.6118333'
S'-81.4611944'
tp4480
sa(dp4481
S'Calhoun'
p4482
(S'34.45545'
S'-84.9391622'
tp4483
sa(dp4484
S'Cornelia'
p4485
(S'34.4998483'
S'-83.5566701'
tp4486
sa(dp4487
S'Georgetown'
p4488
(S'30.678809'
S'-97.6793837'
tp4489
sa(dp4490
S'Rhinebeck'
p4491
(S'41.969833'
S'-73.864555'
tp4492
sa(dp4493
S'Sidney'
p4494
(S'41.10167'
S'-102.985'
tp4495
sa(dp4496
S'Luray'
p4497
(S'38.666944'
S'-78.500556'
tp4498
sa(dp4499
S'Waynesboro'
p4500
(S'38.076944'
S'-78.944167'
tp4501
sa(dp4502
S'Kapolei'
p4503
(S'21.307222'
S'-158.070278'
tp4504
sa(dp4505
S'Sausalito'
p4506
(S'37.87856'
S'-122.512742'
tp4507
sa(dp4508
S'Huntsville'
p4509
(S'34.861'
S'-86.558'
tp4510
sa(dp4511
S'Leesburg'
p4512
(S'39.078'
S'-77.558'
tp4513
sa(dp4514
S'Williamson'
p4515
(S'43.2347904'
S'-77.119444'
tp4516
sa(dp4517
S'Clear Lake City'
p4518
(S'29.5569'
S'-95.137497'
tp4519
sa(dp4520
S'Boulder'
p4521
(S'40.039444'
S'-105.225833'
tp4522
sa(dp4523
S'Palo Alto'
p4524
(S'37.4611111'
S'-122.1150556'
tp4525
sa(dp4526
S'Mesa'
p4527
(S'33.4608001708984'
S'-111.727996826172'
tp4528
sa(dp4529
S'Cooldige'
p4530
(S'32.9359016418457'
S'-111.427001953125'
tp4531
sa(dp4532
S'Cottonwood'
p4533
(S'34.7299995422363'
S'-112.035003662109'
tp4534
sa(dp4535
S'Phoenix'
p4536
(S'32.99169921875'
S'-111.920997619629'
tp4537
sa(dp4538
S'Wickenburg'
p4539
(S'33.96889877'
S'-112.7990036'
tp4540
sa(dp4541
S'Pontiac'
p4542
(S'42.667'
S'-83.35'
tp4543
sa(dp4544
S'Keene'
p4545
(S'72.270833'
S'42.898333'
tp4546
sa(dp4547
S'Glasgow'
p4548
(S'48.4211069'
S'-106.5277039'
tp4549
sa(dp4550
S'Albany'
p4551
(S'42.641389'
S'-73.741111'
tp4552
sa(dp4553
S'Tacoma'
p4554
(S'47.242733'
S'-122.42041'
tp4555
sa(dp4556
S'Orlando'
p4557
(S'28.5259'
S'-81.3813'
tp4558
sa(dp4559
S'Healy'
p4560
(S'63.7306'
S'-148.913733333333'
tp4561
sa(dp4562
S'Charlotte'
p4563
(S'35.01833'
S'-80.62001'
tp4564
sa(dp4565
S'Iowa City'
p4566
(S'41.639244'
S'-91.546503'
tp4567
sa(dp4568
S'Windom'
p4569
(S'43.9134017'
S'-95.1094083'
tp4570
sa(dp4571
S'Longview'
p4572
(S'44.6608611'
S'-119.6526153'
tp4573
sa(dp4574
S'Annapolis'
p4575
(S'38.942778'
S'-76.568333'
tp4576
sa(dp4577
S'Pecos'
p4578
(S'31.3823889'
S'-103.5107222'
tp4579
sa(dp4580
S'Hattiesburg'
p4581
(S'31.2649444'
S'-89.2528889'
tp4582
sa(dp4583
S'Yankton'
p4584
(S'42.8711'
S'-97.3969'
tp4585
sa(dp4586
S'Selma Alabama'
p4587
(S'32.4404'
S'-86.9522'
tp4588
sa(dp4589
S'Hollister'
p4590
(S'54.013333333333335'
S'-124.76833333333333'
tp4591
sa(dp4592
S'Hayward'
p4593
(S'37.65888888888889'
S'-122.12166666666666'
tp4594
sa(dp4595
S'Pittsburgh'
p4596
(S'40.4406'
S'-79.9961'
tp4597
sa(dp4598
S'Raton'
p4599
(S'36.9033'
S'-104.4386'
tp4600
sa(dp4601
S'Ann Arbor'
p4602
(S'42.132274'
S'-83.444418'
tp4603
sa(dp4604
S'Fairbanks'
p4605
(S'64.5109'
S'-147.4445'
tp4606
sa(dp4607
S'Denali'
p4608
(S'63.43083'
S'-150.31111'
tp4609
sa(dp4610
S'Talkeetna'
p4611
(S'62.18934'
S'-150.06177'
tp4612
sa(dp4613
S'Anchorage'
p4614
(S'61.1318'
S'-149.5326'
tp4615
sa(dp4616
S'Whittier'
p4617
(S'60.774174'
S'-148.677649'
tp4618
sa(dp4619
S'Boston'
p4620
(S'42.3478'
S'-71.075'
tp4621
sa(dp4622
S'Niagara Falls'
p4623
(S'43.1135'
S'-79.0318'
tp4624
sa(dp4625
S'Hampton'
p4626
(S'33.389099'
S'-84.332397'
tp4627
sa(dp4628
S'Denver'
p4629
(S'39.779255'
S'-104.88184'
tp4630
sa(dp4631
S'Alameda'
p4632
(S'37.7861'
S'-122.3186'
tp4633
sa(dp4634
S'Buffalo'
p4635
(S'42.8783'
S'-78.8738'
tp4636
sa(dp4637
S'Wilmington'
p4638
(S'39.736667'
S'-75.551667'
tp4639
sa(dp4640
S'Elkhart'
p4641
(S'41.719444'
S'-86.003333'
tp4642
sa(dp4643
S'Salt Lake City'
p4644
(S'40.762778'
S'-111.908333'
tp4645
sa(dp4646
S'San Diego'
p4647
(S'32.903'
S'-117.225'
tp4648
sa(dp4649
S'San Diego'
p4650
(S'32.716944'
S'-117.168611'
tp4651
sa(dp4652
S'Immokalee '
p4653
(S'26.433889'
S'-81.401389'
tp4654
sa(dp4655
S'Cambria'
p4656
(S'35.607748'
S'-121.110192'
tp4657
sa(dp4658
S'Brevard County'
p4659
(S'28.4113919'
S'-80.6081066'
tp4660
sa(dp4661
S'New Carrollton'
p4662
(S'38.948'
S'-76.8719'
tp4663
sa(dp4664
S'Walkersville'
p4665
(S'39.48618333333334'
S'-77.35475'
tp4666
sa(dp4667
S'Seattle'
p4668
(S'47.613801'
S'-122.354019'
tp4669
sa(dp4670
S'Petersburg'
p4671
(S'37.18375'
S'-77.507388'
tp4672
sa(dp4673
S'Sheboygan'
p4674
(S'43.7696'
S'-87.851402'
tp4675
sa(dp4676
S'Ephraim'
p4677
(S'45.1354167'
S'-87.1879444'
tp4678
sa(dp4679
S'Frederick'
p4680
(S'39.4449'
S'-77.4012'
tp4681
sa(dp4682
S'Marana'
p4683
(S'32.509722'
S'-111.325278'
tp4684
sa(dp4685
S'Glendale'
p4686
(S'33.5269167'
S'-112.2951389'
tp4687
sa(dp4688
S'Safford'
p4689
(S'32.8533333'
S'-109.6350833'
tp4690
sa(dp4691
S'Dania Beach'
p4692
(S'26.061933'
S'-80.16565'
tp4693
sa(dp4694
S'Deerfield Beach'
p4695
(S'26.316944'
S'-80.122222'
tp4696
sa(dp4697
S'Sikeston'
p4698
(S'36.8988889'
S'-89.56175'
tp4699
sa(dp4700
S'Oceano'
p4701
(S'35.10147222'
S'-120.62236111'
tp4702
sa(dp4703
S'Queensbury'
p4704
(S'43.341222'
S'-73.610305'
tp4705
sa(dp4706
S'Ballston Spa'
p4707
(S'43.050722'
S'-73.861638'
tp4708
sa(dp4709
S'Mechanicville'
p4710
(S'42.893133'
S'-73.66845'
tp4711
sa(dp4712
S'Crystal River'
p4713
(S'28.8676111'
S'-82.5741111'
tp4714
sa(dp4715
S'Baltimore'
p4716
(S'39.3256667'
S'-76.4137778'
tp4717
sa(dp4718
S'Lincoln'
p4719
(S'38.9091667'
S'-121.3513333'
tp4720
sa(dp4721
S'Fostoria'
p4722
(S'41.1908333'
S'-83.3930833'
tp4723
sa(dp4724
S'Fryeburg'
p4725
(S'43.9911389'
S'-70.9478889'
tp4726
sa(dp4727
S'Placida'
p4728
(S'26.8537417'
S'-82.2526028'
tp4729
sa(dp4730
S'New Orleans'
p4731
(S'30.0424167'
S'-90.02825'
tp4732
sa(dp4733
S"Coeur d'Alene"
p4734
(S'47.7743056'
S'-116.8195833'
tp4735
sa(dp4736
S'Beaumont'
p4737
(S'30.0702044'
S'-94.2150967'
tp4738
sa(dp4739
S'Danville'
p4740
(S'40.1996944'
S'-87.5955278'
tp4741
sa(dp4742
S'Dearborn'
p4743
(S'42.312222'
S'-83.198611'
tp4744
sa(dp4745
S'Cocoa'
p4746
(S'28.3416111'
S'-80.6854722'
tp4747
sa(dp4748
S'Valkaria'
p4749
(S'27.9608611'
S'-80.5583333'
tp4750
sa(dp4751
S'Titusville'
p4752
(S'28.5148'
S'-80.7992278'
tp4753
sa(dp4754
S'Sebastian'
p4755
(S'27.81325'
S'-80.4955833'
tp4756
sa(dp4757
S'Effingham'
p4758
(S'39.07'
S'-88.534'
tp4759
sa(dp4760
S'Houston'
p4761
(S'29.43'
S'-95.35'
tp4762
sa(dp4763
S'Eden Prairie'
p4764
(S'44.4938'
S'-93.2726'
tp4765
sa(dp4766
S'Olathe'
p4767
(S'38.5051'
S'-94.4415'
tp4768
sa(dp4769
S'Marshall'
p4770
(S'44.4469'
S'95.7883'
tp4771
sa(dp4772
S'Orlando'
p4773
(S'28.707222'
S'-81.581667'
tp4774
sa(dp4775
S'West Goshen Township'
p4776
(S'39.5924'
S'-75.3455'
tp4777
sa(dp4778
S'Manassas'
p4779
(S'38.721389'
S'-77.515556'
tp4780
sa(dp4781
S'Angleton'
p4782
(S'29.1086389'
S'-95.4620833'
tp4783
sa(dp4784
S'Johnstown'
p4785
(S'40.3297222'
S'-78.9222222'
tp4786
sa(dp4787
S'Snohomish WA'
p4788
(S'47.904451'
S'-122.102529'
tp4789
sa(dp4790
S'Hanksville'
p4791
(S'37.8916547'
S'-110.3840289'
tp4792
sa(dp4793
S'Santa Barbara'
p4794
(S'34.413611'
S'-119.691667'
tp4795
sa(dp4796
S'Eugene'
p4797
(S'44.055062'
S'-123.092372'
tp4798
sa(dp4799
S'Shelbyville'
p4800
(S'39.410556'
S'-88.845556'
tp4801
sa(dp4802
S'Champaign'
p4803
(S'40.1155'
S'-88.2411'
tp4804
sa(dp4805
S'Mattoon'
p4806
(S'39.4828'
S'-88.3759'
tp4807
sa(dp4808
S'Peach Springs'
p4809
(S'35.899904'
S'-113.815674'
tp4810
sa(dp4811
S'Boston'
p4812
(S'42.366235'
S'-71.061122'
tp4813
sa(dp4814
S'Rockport'
p4815
(S'42.6558328'
S'-70.6266667'
tp4816
sa(dp4817
S'Salem'
p4818
(S'42.5249995'
S'-70.8958333'
tp4819
sa(dp4820
S'Salem'
p4821
(S'42.522421'
S'-70.881607'
tp4822
sa(dp4823
S'Boston'
p4824
(S'42.36024'
S'-71.048105'
tp4825
sa(dp4826
S'Joliet'
p4827
(S'41.5244'
S'-88.0795'
tp4828
sa(dp4829
S'New Lenox'
p4830
(S'41.485'
S'-87.9596'
tp4831
sa(dp4832
S'Chicago'
p4833
(S'41.875'
S'-87.632'
tp4834
sa(dp4835
S'Norfolk'
p4836
(S'36.843233'
S'-76.275952'
tp4837
sa(dp4838
S'Gloucester'
p4839
(S'42.61666666666667'
S'-70.66833333333334'
tp4840
sa(dp4841
S'Johnstown'
p4842
(S'40.3296'
S'-78.9219'
tp4843
sa(dp4844
S'Enumclaw'
p4845
(S'47.1956569'
S'-122.0220561'
tp4846
sa(dp4847
S'Tarentum'
p4848
(S'40.6035463'
S'-79.8261189'
tp4849
sa(dp4850
S'New York'
p4851
(S'40.752726'
S'-73.977229'
tp4852
sa(dp4853
S'New York'
p4854
(S'40.847301'
S'-73.89955'
tp4855
sa(dp4856
S'Newburyport'
p4857
(S'42.7953611'
S'-70.8394444'
tp4858
sa(dp4859
S'Brooks Camp'
p4860
(S'58.556539'
S'-155.777311'
tp4861
sa(dp4862
S'Kulik Lake'
p4863
(S'58.96591'
S'-155.108089'
tp4864
sa(dp4865
S'Port alsworth'
p4866
(S'60.208281'
S'-154.306586'
tp4867
sa(dp4868
S'Winnsboro'
p4869
(S'34.315472'
S'-81.108806'
tp4870
sa(dp4871
S'Rochester'
p4872
(S'43.2840556'
S'-70.9292778'
tp4873
sa(dp4874
S'Port Oceanic'
p4875
(S'60.2083333'
S'-147.8194444'
tp4876
sa(dp4877
S'Newton'
p4878
(S'38.0570785'
S'-97.2752278'
tp4879
sa(dp4880
S'Columbus'
p4881
(S'39.901111'
S'-83.136944'
tp4882
sa(dp4883
S'Ocean Shores'
p4884
(S'46.5995'
S'-124.0854'
tp4885
sa(dp4886
S'Packwood'
p4887
(S'46.3625'
S'-121.4067'
tp4888
sa(dp4889
S'Fort Bridger'
p4890
(S'41.236'
S'-110.2436'
tp4891
sa(dp4892
S'Prosser'
p4893
(S'46.128'
S'-119.4773'
tp4894
sa(dp4895
S'Chehalis'
p4896
(S'46.4062'
S'-122.5897'
tp4897
sa(dp4898
S'Mattawa'
p4899
(S'46.4124'
S'-119.5518'
tp4900
sa(dp4901
S'Lebanon'
p4902
(S'44.3179'
S'-122.5577'
tp4903
sa(dp4904
S'Evanston'
p4905
(S'41.1649'
S'-111.0208'
tp4906
sa(dp4907
S'Sabetha'
p4908
(S'39.5425'
S'-95.4677'
tp4909
sa(dp4910
S'Mount Pleasant'
p4911
(S'32.5387'
S'-79.4697'
tp4912
sa(dp4913
S'Americus'
p4914
(S'32.0665'
S'-84.1133'
tp4915
sa(dp4916
S'Eufala'
p4917
(S'31.5708'
S'-85.0774'
tp4918
sa(dp4919
S'Saluda'
p4920
(S'33.5561'
S'-81.4768'
tp4921
sa(dp4922
S'Manteo'
p4923
(S'35.5514'
S'-75.4173'
tp4924
sa(dp4925
S'Auburn'
p4926
(S'32.3691'
S'-85.2604'
tp4927
sa(dp4928
S'Endicott'
p4929
(S'42.0471'
S'-76.0578'
tp4930
sa(dp4931
S'Kendall'
p4932
(S'25.603889'
S'-80.585556'
tp4933
sa(dp4934
S'Bessemer'
p4935
(S'33.1876'
S'-86.5558'
tp4936
sa(dp4937
S'Ellicott'
p4938
(S'38.87'
S'-104.41'
tp4939
sa(dp4940
S'Depew'
p4941
(S'42.9074'
S'-78.7266'
tp4942
sa(dp4943
S'South Bend'
p4944
(S'41.678'
S'-86.2876'
tp4945
sa(dp4946
S'Michigan City'
p4947
(S'41.7133'
S'-86.8677'
tp4948
sa(dp4949
S'Chicago'
p4950
(S'41.8837'
S'-87.623'
tp4951
sa(dp4952
S'St. Louis'
p4953
(S'38.6239'
S'-90.2039'
tp4954
sa(dp4955
S'Kansas City'
p4956
(S'39.0865'
S'-94.586'
tp4957
sa(dp4958
S'Albuquerque'
p4959
(S'35.0826'
S'-106.6474'
tp4960
sa(dp4961
S'San Francisco'
p4962
(S'37.7763884'
S'-122.3944444'
tp4963
sa(dp4964
S'Oakland'
p4965
(S'37.7935'
S'-122.2719'
tp4966
sa(dp4967
S'Mountain View'
p4968
(S'37.3943934'
S'-122.075872'
tp4969
sa(dp4970
S'San Mateo'
p4971
(S'37.5683328'
S'-122.3241667'
tp4972
sa(dp4973
S'Sunnyvale'
p4974
(S'37.3786106'
S'-122.0308333'
tp4975
sa(dp4976
S'San Mateo'
p4977
(S'37.6002772'
S'-122.3866667'
tp4978
sa(dp4979
S'Cleveland'
p4980
(S'41.5034'
S'-81.6822'
tp4981
sa(dp4982
S'Crystal'
p4983
(S'45.0343'
S'-93.2114'
tp4984
sa(dp4985
S'Quitman'
p4986
(S'32.0517'
S'-88.4434'
tp4987
sa(dp4988
S'Dublin'
p4989
(S'32.3388'
S'-82.591'
tp4990
sa(dp4991
S'New York'
p4992
(S'40.756667'
S'-73.991111'
tp4993
sa(dp4994
S'Allentown'
p4995
(S'40.605604'
S'-75.462384'
tp4996
sa(dp4997
S'Binghamton'
p4998
(S'42.101438'
S'-75.910431'
tp4999
sa(dp5000
S'Syracuse'
p5001
(S'43.0767'
S'-76.1691'
tp5002
sa(dp5003
S'Utica'
p5004
(S'43.104167'
S'-75.223333'
tp5005
sa(dp5006
S'Clinton'
p5007
(S'43.048889'
S'-75.380278'
tp5008
sa(dp5009
S'Williamsport'
p5010
(S'41.239395'
S'-77.000245'
tp5011
sa(dp5012
S'Wilkes-Barre'
p5013
(S'41.243958'
S'-75.882365'
tp5014
sa(dp5015
S'Hazelton'
p5016
(S'40.954055'
S'-75.976102'
tp5017
sa(dp5018
S'Lewisburg'
p5019
(S'40.963889'
S'-76.888056'
tp5020
sa(dp5021
S'Madison'
p5022
(S'40.757028'
S'-74.415194'
tp5023
sa(dp5024
S'Maplewood'
p5025
(S'40.731111'
S'-74.275556'
tp5026
sa(dp5027
S'Harrisburg'
p5028
(S'40.26223'
S'-76.878709'
tp5029
sa(dp5030
S'Poughkeepsie'
p5031
(S'41.706516'
S'-73.937774'
tp5032
sa(dp5033
S'Fort Lauderdale'
p5034
(S'26.087679'
S'-80.115942'
tp5035
sa(dp5036
S'Summit'
p5037
(S'40.716556'
S'-74.35775'
tp5038
sa(dp5039
S'Corvallis'
p5040
(S'44.5067'
S'-123.2915'
tp5041
sa(dp5042
S'Scranton'
p5043
(S'41.410253'
S'-75.670297'
tp5044
sa(dp5045
S'New Brunswick'
p5046
(S'40.496432'
S'-74.446447'
tp5047
sa(dp5048
S'Trenton'
p5049
(S'40.218839'
S'-74.754279'
tp5050
sa(dp5051
S'Philadelphia'
p5052
(S'40.032679'
S'-75.023718'
tp5053
sa(dp5054
S'White Plains'
p5055
(S'41.032549'
S'-73.775069'
tp5056
sa(dp5057
S'Southeast'
p5058
(S'41.413179'
S'-73.623551'
tp5059
sa(dp5060
S'San Diego'
p5061
(S'32.716861'
S'-117.174296'
tp5062
sa(dp5063
S'Anacortes'
p5064
(S'48.50728'
S'-122.677596'
tp5065
sa(dp5066
S'Friday Harbor'
p5067
(S'48.535673'
S'-123.014044'
tp5068
sa(dp5069
S'Morristown'
p5070
(S'40.796957'
S'-74.473834'
tp5071
sa(dp5072
S'Seattle'
p5073
(S'47.609178'
S'-122.350605'
tp5074
sa(dp5075
S'Whittier'
p5076
(S'60.776566'
S'-148.683367'
tp5077
sa(dp5078
S'Valdez'
p5079
(S'61.123976'
S'-146.365309'
tp5080
sa(dp5081
S'Bainbridge Island'
p5082
(S'47.622237'
S'-122.509362'
tp5083
sa(dp5084
S'Chatsworth'
p5085
(S'34.256944'
S'-118.598889'
tp5086
sa(dp5087
S'Deer Harbor'
p5088
(S'48.618397'
S'-123.00596'
tp5089
sa(dp5090
S'San Diego'
p5091
(S'32.7552'
p5092
S'-117.1995'
p5093
tp5094
sa.